(dp0
S'isShellCmd'
p1
I00
sS'cmd'
p2
(lp3
S'/home/robin/Documents/Project/manta/Install/libexec/GetAlignmentStats'
p4
aS'--ref'
p5
aS'/home/robin/Documents/Project/Samples/hg38/hg38.fa'
p6
aS'--output-file'
p7
aS'/home/robin/Documents/Project/TFM_code/CNVbenchmarkeR/output/manta2-datasetall/results17390/workspace/alignmentStats.xml.tmpdir/alignmentStats.xml.000.xml'
p8
aS'--align-file'
p9
aS'/home/robin/Documents/Project/Samples/bam/all/17390.bam'
p10
asS'errFile'
p11
S'/home/robin/Documents/Project/TFM_code/CNVbenchmarkeR/output/manta2-datasetall/results17390/workspace/pyflow.data/logs/pyflow_tasks_stderr_log.txt'
p12
sS'outFile'
p13
S'/home/robin/Documents/Project/TFM_code/CNVbenchmarkeR/output/manta2-datasetall/results17390/workspace/pyflow.data/logs/pyflow_tasks_stdout_log.txt'
p14
sS'env'
p15
NsS'nCores'
p16
I1
sS'cwd'
p17
S''
p18
s.