(dp0
S'isShellCmd'
p1
I00
sS'cmd'
p2
(lp3
S'/home/robin/Documents/Project/manta/Install/libexec/EstimateSVLoci'
p4
aS'--output-file'
p5
aS'/home/robin/Documents/Project/TFM_code/CNVbenchmarkeR-master/output/manta-datasetsinglefilter/workspace/svLocusGraph.bin.tmpdir/svLocusGraph.chromId_055_3_KI270935v1_alt_0000.bin'
p6
aS'--align-stats'
p7
aS'/home/robin/Documents/Project/TFM_code/CNVbenchmarkeR-master/output/manta-datasetsinglefilter/workspace/alignmentStats.xml'
p8
aS'--region'
p9
aS'3_KI270935v1_alt:1-197351'
p10
aS'--min-candidate-sv-size'
p11
aS'8'
p12
aS'--min-edge-observations'
p13
aS'1'
p14
aS'--ref'
p15
aS'/home/robin/Documents/Project/Samples/hg38/hg38.fa'
p16
aS'--align-file'
p17
aS'/home/robin/Documents/Project/Samples/bam/single/17296.bam'
p18
ag17
aS'/home/robin/Documents/Project/Samples/bam/single/17298.bam'
p19
ag17
aS'/home/robin/Documents/Project/Samples/bam/single/17299.bam'
p20
ag17
aS'/home/robin/Documents/Project/Samples/bam/single/17300.bam'
p21
ag17
aS'/home/robin/Documents/Project/Samples/bam/single/17301.bam'
p22
ag17
aS'/home/robin/Documents/Project/Samples/bam/single/17304.bam'
p23
ag17
aS'/home/robin/Documents/Project/Samples/bam/single/17305.bam'
p24
ag17
aS'/home/robin/Documents/Project/Samples/bam/single/17306.bam'
p25
ag17
aS'/home/robin/Documents/Project/Samples/bam/single/17308.bam'
p26
ag17
aS'/home/robin/Documents/Project/Samples/bam/single/17309.bam'
p27
ag17
aS'/home/robin/Documents/Project/Samples/bam/single/17310.bam'
p28
ag17
aS'/home/robin/Documents/Project/Samples/bam/single/17311.bam'
p29
ag17
aS'/home/robin/Documents/Project/Samples/bam/single/17312.bam'
p30
ag17
aS'/home/robin/Documents/Project/Samples/bam/single/17313.bam'
p31
ag17
aS'/home/robin/Documents/Project/Samples/bam/single/17314.bam'
p32
ag17
aS'/home/robin/Documents/Project/Samples/bam/single/17315.bam'
p33
ag17
aS'/home/robin/Documents/Project/Samples/bam/single/17316.bam'
p34
ag17
aS'/home/robin/Documents/Project/Samples/bam/single/17317.bam'
p35
ag17
aS'/home/robin/Documents/Project/Samples/bam/single/17319.bam'
p36
ag17
aS'/home/robin/Documents/Project/Samples/bam/single/17320.bam'
p37
ag17
aS'/home/robin/Documents/Project/Samples/bam/single/17326.bam'
p38
ag17
aS'/home/robin/Documents/Project/Samples/bam/single/17327.bam'
p39
ag17
aS'/home/robin/Documents/Project/Samples/bam/single/17328.bam'
p40
ag17
aS'/home/robin/Documents/Project/Samples/bam/single/17329.bam'
p41
ag17
aS'/home/robin/Documents/Project/Samples/bam/single/17330.bam'
p42
ag17
aS'/home/robin/Documents/Project/Samples/bam/single/17333.bam'
p43
ag17
aS'/home/robin/Documents/Project/Samples/bam/single/17339.bam'
p44
ag17
aS'/home/robin/Documents/Project/Samples/bam/single/17356.bam'
p45
ag17
aS'/home/robin/Documents/Project/Samples/bam/single/17360.bam'
p46
ag17
aS'/home/robin/Documents/Project/Samples/bam/single/17361.bam'
p47
ag17
aS'/home/robin/Documents/Project/Samples/bam/single/17362.bam'
p48
ag17
aS'/home/robin/Documents/Project/Samples/bam/single/17364.bam'
p49
ag17
aS'/home/robin/Documents/Project/Samples/bam/single/17365.bam'
p50
ag17
aS'/home/robin/Documents/Project/Samples/bam/single/17367.bam'
p51
ag17
aS'/home/robin/Documents/Project/Samples/bam/single/17368.bam'
p52
ag17
aS'/home/robin/Documents/Project/Samples/bam/single/17369.bam'
p53
ag17
aS'/home/robin/Documents/Project/Samples/bam/single/17370.bam'
p54
ag17
aS'/home/robin/Documents/Project/Samples/bam/single/17371.bam'
p55
ag17
aS'/home/robin/Documents/Project/Samples/bam/single/17373.bam'
p56
ag17
aS'/home/robin/Documents/Project/Samples/bam/single/17374.bam'
p57
ag17
aS'/home/robin/Documents/Project/Samples/bam/single/17376.bam'
p58
ag17
aS'/home/robin/Documents/Project/Samples/bam/single/17382.bam'
p59
ag17
aS'/home/robin/Documents/Project/Samples/bam/single/17384.bam'
p60
ag17
aS'/home/robin/Documents/Project/Samples/bam/single/17386.bam'
p61
ag17
aS'/home/robin/Documents/Project/Samples/bam/single/17387.bam'
p62
ag17
aS'/home/robin/Documents/Project/Samples/bam/single/17389.bam'
p63
ag17
aS'/home/robin/Documents/Project/Samples/bam/single/17391.bam'
p64
ag17
aS'/home/robin/Documents/Project/Samples/bam/single/17392.bam'
p65
ag17
aS'/home/robin/Documents/Project/Samples/bam/single/17397.bam'
p66
ag17
aS'/home/robin/Documents/Project/Samples/bam/single/17398.bam'
p67
ag17
aS'/home/robin/Documents/Project/Samples/bam/single/17399.bam'
p68
ag17
aS'/home/robin/Documents/Project/Samples/bam/single/17401.bam'
p69
ag17
aS'/home/robin/Documents/Project/Samples/bam/single/17402.bam'
p70
ag17
aS'/home/robin/Documents/Project/Samples/bam/single/17403.bam'
p71
asS'errFile'
p72
S'/home/robin/Documents/Project/TFM_code/CNVbenchmarkeR-master/output/manta-datasetsinglefilter/workspace/pyflow.data/logs/pyflow_tasks_stderr_log.txt'
p73
sS'outFile'
p74
S'/home/robin/Documents/Project/TFM_code/CNVbenchmarkeR-master/output/manta-datasetsinglefilter/workspace/pyflow.data/logs/pyflow_tasks_stdout_log.txt'
p75
sS'env'
p76
NsS'nCores'
p77
I1
sS'cwd'
p78
S''
p79
s.