(dp0
S'isShellCmd'
p1
I00
sS'cmd'
p2
(lp3
S'/home/robin/Documents/Project/manta/Install/libexec/EstimateSVLoci'
p4
aS'--output-file'
p5
aS'/home/robin/Documents/Project/TFM_code/CNVbenchmarkeR-master/output/manta-dataset1/workspace/svLocusGraph.bin.tmpdir/svLocusGraph.chromId_159_12_0007.bin'
p6
aS'--align-stats'
p7
aS'/home/robin/Documents/Project/TFM_code/CNVbenchmarkeR-master/output/manta-dataset1/workspace/alignmentStats.xml'
p8
aS'--region'
p9
aS'12:77743933-88850208'
p10
aS'--min-candidate-sv-size'
p11
aS'8'
p12
aS'--min-edge-observations'
p13
aS'1'
p14
aS'--ref'
p15
aS'/home/robin/Documents/Project/Samples/hg38/hg38.fa'
p16
aS'--align-file'
p17
aS'/home/robin/Documents/Project/Samples/example/bam_ex/17296.bam'
p18
ag17
aS'/home/robin/Documents/Project/Samples/example/bam_ex/17297.bam'
p19
ag17
aS'/home/robin/Documents/Project/Samples/example/bam_ex/17298.bam'
p20
ag17
aS'/home/robin/Documents/Project/Samples/example/bam_ex/17299.bam'
p21
ag17
aS'/home/robin/Documents/Project/Samples/example/bam_ex/17300.bam'
p22
ag17
aS'/home/robin/Documents/Project/Samples/example/bam_ex/17301.bam'
p23
ag17
aS'/home/robin/Documents/Project/Samples/example/bam_ex/17302.bam'
p24
ag17
aS'/home/robin/Documents/Project/Samples/example/bam_ex/17303.bam'
p25
ag17
aS'/home/robin/Documents/Project/Samples/example/bam_ex/17304.bam'
p26
ag17
aS'/home/robin/Documents/Project/Samples/example/bam_ex/17305.bam'
p27
asS'errFile'
p28
S'/home/robin/Documents/Project/TFM_code/CNVbenchmarkeR-master/output/manta-dataset1/workspace/pyflow.data/logs/pyflow_tasks_stderr_log.txt'
p29
sS'outFile'
p30
S'/home/robin/Documents/Project/TFM_code/CNVbenchmarkeR-master/output/manta-dataset1/workspace/pyflow.data/logs/pyflow_tasks_stdout_log.txt'
p31
sS'env'
p32
NsS'nCores'
p33
I1
sS'cwd'
p34
S''
p35
s.