(dp0
S'isShellCmd'
p1
I00
sS'cmd'
p2
(lp3
S'/home/robin/Documents/Project/manta/Install/libexec/EstimateSVLoci'
p4
aS'--output-file'
p5
aS'/home/robin/Documents/Project/TFM_code/CNVbenchmarkeR-master/output/manta-datasetall/workspace/svLocusGraph.bin.tmpdir/svLocusGraph.chromId_335_Un_GL000224v1_0000_to_chromId_338_Un_KI270303v1_0000.bin'
p6
aS'--align-stats'
p7
aS'/home/robin/Documents/Project/TFM_code/CNVbenchmarkeR-master/output/manta-datasetall/workspace/alignmentStats.xml'
p8
aS'--region'
p9
aS'Un_GL000224v1:1-179693'
p10
ag9
aS'Un_GL000226v1:1-15008'
p11
ag9
aS'Un_KI270302v1:1-2274'
p12
ag9
aS'Un_KI270303v1:1-1942'
p13
aS'--min-candidate-sv-size'
p14
aS'8'
p15
aS'--min-edge-observations'
p16
aS'2'
p17
aS'--ref'
p18
aS'/home/robin/Documents/Project/Samples/hg38/hg38.fa'
p19
aS'--align-file'
p20
aS'/home/robin/Documents/Project/Samples/bam/all/17296.bam'
p21
ag20
aS'/home/robin/Documents/Project/Samples/bam/all/17297.bam'
p22
ag20
aS'/home/robin/Documents/Project/Samples/bam/all/17298.bam'
p23
ag20
aS'/home/robin/Documents/Project/Samples/bam/all/17299.bam'
p24
ag20
aS'/home/robin/Documents/Project/Samples/bam/all/17300.bam'
p25
ag20
aS'/home/robin/Documents/Project/Samples/bam/all/17301.bam'
p26
ag20
aS'/home/robin/Documents/Project/Samples/bam/all/17302.bam'
p27
ag20
aS'/home/robin/Documents/Project/Samples/bam/all/17303.bam'
p28
ag20
aS'/home/robin/Documents/Project/Samples/bam/all/17304.bam'
p29
ag20
aS'/home/robin/Documents/Project/Samples/bam/all/17305.bam'
p30
ag20
aS'/home/robin/Documents/Project/Samples/bam/all/17306.bam'
p31
ag20
aS'/home/robin/Documents/Project/Samples/bam/all/17307.bam'
p32
ag20
aS'/home/robin/Documents/Project/Samples/bam/all/17308.bam'
p33
ag20
aS'/home/robin/Documents/Project/Samples/bam/all/17309.bam'
p34
ag20
aS'/home/robin/Documents/Project/Samples/bam/all/17310.bam'
p35
ag20
aS'/home/robin/Documents/Project/Samples/bam/all/17311.bam'
p36
ag20
aS'/home/robin/Documents/Project/Samples/bam/all/17312.bam'
p37
ag20
aS'/home/robin/Documents/Project/Samples/bam/all/17313.bam'
p38
ag20
aS'/home/robin/Documents/Project/Samples/bam/all/17314.bam'
p39
ag20
aS'/home/robin/Documents/Project/Samples/bam/all/17315.bam'
p40
ag20
aS'/home/robin/Documents/Project/Samples/bam/all/17316.bam'
p41
ag20
aS'/home/robin/Documents/Project/Samples/bam/all/17317.bam'
p42
ag20
aS'/home/robin/Documents/Project/Samples/bam/all/17318.bam'
p43
ag20
aS'/home/robin/Documents/Project/Samples/bam/all/17319.bam'
p44
ag20
aS'/home/robin/Documents/Project/Samples/bam/all/17320.bam'
p45
ag20
aS'/home/robin/Documents/Project/Samples/bam/all/17321.bam'
p46
ag20
aS'/home/robin/Documents/Project/Samples/bam/all/17322.bam'
p47
ag20
aS'/home/robin/Documents/Project/Samples/bam/all/17323.bam'
p48
ag20
aS'/home/robin/Documents/Project/Samples/bam/all/17324.bam'
p49
ag20
aS'/home/robin/Documents/Project/Samples/bam/all/17325.bam'
p50
ag20
aS'/home/robin/Documents/Project/Samples/bam/all/17326.bam'
p51
ag20
aS'/home/robin/Documents/Project/Samples/bam/all/17327.bam'
p52
ag20
aS'/home/robin/Documents/Project/Samples/bam/all/17328.bam'
p53
ag20
aS'/home/robin/Documents/Project/Samples/bam/all/17329.bam'
p54
ag20
aS'/home/robin/Documents/Project/Samples/bam/all/17330.bam'
p55
ag20
aS'/home/robin/Documents/Project/Samples/bam/all/17331.bam'
p56
ag20
aS'/home/robin/Documents/Project/Samples/bam/all/17332.bam'
p57
ag20
aS'/home/robin/Documents/Project/Samples/bam/all/17333.bam'
p58
ag20
aS'/home/robin/Documents/Project/Samples/bam/all/17334.bam'
p59
ag20
aS'/home/robin/Documents/Project/Samples/bam/all/17335.bam'
p60
ag20
aS'/home/robin/Documents/Project/Samples/bam/all/17336.bam'
p61
ag20
aS'/home/robin/Documents/Project/Samples/bam/all/17337.bam'
p62
ag20
aS'/home/robin/Documents/Project/Samples/bam/all/17338.bam'
p63
ag20
aS'/home/robin/Documents/Project/Samples/bam/all/17339.bam'
p64
ag20
aS'/home/robin/Documents/Project/Samples/bam/all/17340.bam'
p65
ag20
aS'/home/robin/Documents/Project/Samples/bam/all/17341.bam'
p66
ag20
aS'/home/robin/Documents/Project/Samples/bam/all/17342.bam'
p67
ag20
aS'/home/robin/Documents/Project/Samples/bam/all/17343.bam'
p68
ag20
aS'/home/robin/Documents/Project/Samples/bam/all/17356.bam'
p69
ag20
aS'/home/robin/Documents/Project/Samples/bam/all/17357.bam'
p70
ag20
aS'/home/robin/Documents/Project/Samples/bam/all/17358.bam'
p71
ag20
aS'/home/robin/Documents/Project/Samples/bam/all/17359.bam'
p72
ag20
aS'/home/robin/Documents/Project/Samples/bam/all/17360.bam'
p73
ag20
aS'/home/robin/Documents/Project/Samples/bam/all/17361.bam'
p74
ag20
aS'/home/robin/Documents/Project/Samples/bam/all/17362.bam'
p75
ag20
aS'/home/robin/Documents/Project/Samples/bam/all/17363.bam'
p76
ag20
aS'/home/robin/Documents/Project/Samples/bam/all/17364.bam'
p77
ag20
aS'/home/robin/Documents/Project/Samples/bam/all/17365.bam'
p78
ag20
aS'/home/robin/Documents/Project/Samples/bam/all/17366.bam'
p79
ag20
aS'/home/robin/Documents/Project/Samples/bam/all/17367.bam'
p80
ag20
aS'/home/robin/Documents/Project/Samples/bam/all/17368.bam'
p81
ag20
aS'/home/robin/Documents/Project/Samples/bam/all/17369.bam'
p82
ag20
aS'/home/robin/Documents/Project/Samples/bam/all/17370.bam'
p83
ag20
aS'/home/robin/Documents/Project/Samples/bam/all/17371.bam'
p84
ag20
aS'/home/robin/Documents/Project/Samples/bam/all/17372.bam'
p85
ag20
aS'/home/robin/Documents/Project/Samples/bam/all/17373.bam'
p86
ag20
aS'/home/robin/Documents/Project/Samples/bam/all/17374.bam'
p87
ag20
aS'/home/robin/Documents/Project/Samples/bam/all/17375.bam'
p88
ag20
aS'/home/robin/Documents/Project/Samples/bam/all/17376.bam'
p89
ag20
aS'/home/robin/Documents/Project/Samples/bam/all/17377.bam'
p90
ag20
aS'/home/robin/Documents/Project/Samples/bam/all/17378.bam'
p91
ag20
aS'/home/robin/Documents/Project/Samples/bam/all/17379.bam'
p92
ag20
aS'/home/robin/Documents/Project/Samples/bam/all/17380.bam'
p93
ag20
aS'/home/robin/Documents/Project/Samples/bam/all/17381.bam'
p94
ag20
aS'/home/robin/Documents/Project/Samples/bam/all/17382.bam'
p95
ag20
aS'/home/robin/Documents/Project/Samples/bam/all/17383.bam'
p96
ag20
aS'/home/robin/Documents/Project/Samples/bam/all/17384.bam'
p97
ag20
aS'/home/robin/Documents/Project/Samples/bam/all/17385.bam'
p98
ag20
aS'/home/robin/Documents/Project/Samples/bam/all/17386.bam'
p99
ag20
aS'/home/robin/Documents/Project/Samples/bam/all/17387.bam'
p100
ag20
aS'/home/robin/Documents/Project/Samples/bam/all/17388.bam'
p101
ag20
aS'/home/robin/Documents/Project/Samples/bam/all/17389.bam'
p102
ag20
aS'/home/robin/Documents/Project/Samples/bam/all/17390.bam'
p103
ag20
aS'/home/robin/Documents/Project/Samples/bam/all/17391.bam'
p104
ag20
aS'/home/robin/Documents/Project/Samples/bam/all/17392.bam'
p105
ag20
aS'/home/robin/Documents/Project/Samples/bam/all/17393.bam'
p106
ag20
aS'/home/robin/Documents/Project/Samples/bam/all/17394.bam'
p107
ag20
aS'/home/robin/Documents/Project/Samples/bam/all/17395.bam'
p108
ag20
aS'/home/robin/Documents/Project/Samples/bam/all/17396.bam'
p109
ag20
aS'/home/robin/Documents/Project/Samples/bam/all/17397.bam'
p110
ag20
aS'/home/robin/Documents/Project/Samples/bam/all/17398.bam'
p111
ag20
aS'/home/robin/Documents/Project/Samples/bam/all/17399.bam'
p112
ag20
aS'/home/robin/Documents/Project/Samples/bam/all/17400.bam'
p113
ag20
aS'/home/robin/Documents/Project/Samples/bam/all/17401.bam'
p114
ag20
aS'/home/robin/Documents/Project/Samples/bam/all/17402.bam'
p115
ag20
aS'/home/robin/Documents/Project/Samples/bam/all/17403.bam'
p116
asS'errFile'
p117
S'/home/robin/Documents/Project/TFM_code/CNVbenchmarkeR-master/output/manta-datasetall/workspace/pyflow.data/logs/pyflow_tasks_stderr_log.txt'
p118
sS'outFile'
p119
S'/home/robin/Documents/Project/TFM_code/CNVbenchmarkeR-master/output/manta-datasetall/workspace/pyflow.data/logs/pyflow_tasks_stdout_log.txt'
p120
sS'env'
p121
NsS'nCores'
p122
I1
sS'cwd'
p123
S''
p124
s.