(dp0
S'isShellCmd'
p1
I00
sS'cmd'
p2
(lp3
S'/home/robin/Documents/Project/manta/Install/libexec/SummarizeSVLoci'
p4
aS'--global'
p5
aS'--graph-file'
p6
aS'/home/robin/Documents/Project/TFM_code/CNVbenchmarkeR/output/manta2-datasetall/results17307/workspace/svLocusGraph.bin'
p7
aS'--output-file'
p8
aS'/home/robin/Documents/Project/TFM_code/CNVbenchmarkeR/output/manta2-datasetall/results17307/results/stats/svLocusGraphStats.tsv'
p9
asS'errFile'
p10
S'/home/robin/Documents/Project/TFM_code/CNVbenchmarkeR/output/manta2-datasetall/results17307/workspace/pyflow.data/logs/pyflow_tasks_stderr_log.txt'
p11
sS'outFile'
p12
S'/home/robin/Documents/Project/TFM_code/CNVbenchmarkeR/output/manta2-datasetall/results17307/workspace/pyflow.data/logs/pyflow_tasks_stdout_log.txt'
p13
sS'env'
p14
NsS'nCores'
p15
I1
sS'cwd'
p16
S''
p17
s.