(dp0
S'isShellCmd'
p1
I00
sS'cmd'
p2
(lp3
S'/home/robin/Documents/Project/manta/Install/libexec/EstimateSVLoci'
p4
aS'--output-file'
p5
aS'/home/robin/Documents/Project/TFM_code/CNVbenchmarkeR-master/output/manta-datasetsingle/workspace/svLocusGraph.bin.tmpdir/svLocusGraph.chromId_401_Un_KI270448v1_0000_to_chromId_415_Un_KI270518v1_0000.bin'
p6
aS'--align-stats'
p7
aS'/home/robin/Documents/Project/TFM_code/CNVbenchmarkeR-master/output/manta-datasetsingle/workspace/alignmentStats.xml'
p8
aS'--region'
p9
aS'Un_KI270448v1:1-7992'
p10
ag9
aS'Un_KI270465v1:1-1774'
p11
ag9
aS'Un_KI270466v1:1-1233'
p12
ag9
aS'Un_KI270467v1:1-3920'
p13
ag9
aS'Un_KI270468v1:1-4055'
p14
ag9
aS'Un_KI270507v1:1-5353'
p15
ag9
aS'Un_KI270508v1:1-1951'
p16
ag9
aS'Un_KI270509v1:1-2318'
p17
ag9
aS'Un_KI270510v1:1-2415'
p18
ag9
aS'Un_KI270511v1:1-8127'
p19
ag9
aS'Un_KI270512v1:1-22689'
p20
ag9
aS'Un_KI270515v1:1-6361'
p21
ag9
aS'Un_KI270516v1:1-1300'
p22
ag9
aS'Un_KI270517v1:1-3253'
p23
ag9
aS'Un_KI270518v1:1-2186'
p24
aS'--min-candidate-sv-size'
p25
aS'8'
p26
aS'--min-edge-observations'
p27
aS'2'
p28
aS'--ref'
p29
aS'/home/robin/Documents/Project/Samples/hg38/hg38.fa'
p30
aS'--align-file'
p31
aS'/home/robin/Documents/Project/Samples/bam/single/17296.bam'
p32
ag31
aS'/home/robin/Documents/Project/Samples/bam/single/17298.bam'
p33
ag31
aS'/home/robin/Documents/Project/Samples/bam/single/17299.bam'
p34
ag31
aS'/home/robin/Documents/Project/Samples/bam/single/17300.bam'
p35
ag31
aS'/home/robin/Documents/Project/Samples/bam/single/17301.bam'
p36
ag31
aS'/home/robin/Documents/Project/Samples/bam/single/17304.bam'
p37
ag31
aS'/home/robin/Documents/Project/Samples/bam/single/17305.bam'
p38
ag31
aS'/home/robin/Documents/Project/Samples/bam/single/17306.bam'
p39
ag31
aS'/home/robin/Documents/Project/Samples/bam/single/17308.bam'
p40
ag31
aS'/home/robin/Documents/Project/Samples/bam/single/17309.bam'
p41
ag31
aS'/home/robin/Documents/Project/Samples/bam/single/17310.bam'
p42
ag31
aS'/home/robin/Documents/Project/Samples/bam/single/17311.bam'
p43
ag31
aS'/home/robin/Documents/Project/Samples/bam/single/17312.bam'
p44
ag31
aS'/home/robin/Documents/Project/Samples/bam/single/17313.bam'
p45
ag31
aS'/home/robin/Documents/Project/Samples/bam/single/17314.bam'
p46
ag31
aS'/home/robin/Documents/Project/Samples/bam/single/17315.bam'
p47
ag31
aS'/home/robin/Documents/Project/Samples/bam/single/17316.bam'
p48
ag31
aS'/home/robin/Documents/Project/Samples/bam/single/17317.bam'
p49
ag31
aS'/home/robin/Documents/Project/Samples/bam/single/17319.bam'
p50
ag31
aS'/home/robin/Documents/Project/Samples/bam/single/17320.bam'
p51
ag31
aS'/home/robin/Documents/Project/Samples/bam/single/17326.bam'
p52
ag31
aS'/home/robin/Documents/Project/Samples/bam/single/17327.bam'
p53
ag31
aS'/home/robin/Documents/Project/Samples/bam/single/17328.bam'
p54
ag31
aS'/home/robin/Documents/Project/Samples/bam/single/17329.bam'
p55
ag31
aS'/home/robin/Documents/Project/Samples/bam/single/17330.bam'
p56
ag31
aS'/home/robin/Documents/Project/Samples/bam/single/17333.bam'
p57
ag31
aS'/home/robin/Documents/Project/Samples/bam/single/17339.bam'
p58
ag31
aS'/home/robin/Documents/Project/Samples/bam/single/17356.bam'
p59
ag31
aS'/home/robin/Documents/Project/Samples/bam/single/17360.bam'
p60
ag31
aS'/home/robin/Documents/Project/Samples/bam/single/17361.bam'
p61
ag31
aS'/home/robin/Documents/Project/Samples/bam/single/17362.bam'
p62
ag31
aS'/home/robin/Documents/Project/Samples/bam/single/17364.bam'
p63
ag31
aS'/home/robin/Documents/Project/Samples/bam/single/17365.bam'
p64
ag31
aS'/home/robin/Documents/Project/Samples/bam/single/17367.bam'
p65
ag31
aS'/home/robin/Documents/Project/Samples/bam/single/17368.bam'
p66
ag31
aS'/home/robin/Documents/Project/Samples/bam/single/17369.bam'
p67
ag31
aS'/home/robin/Documents/Project/Samples/bam/single/17370.bam'
p68
ag31
aS'/home/robin/Documents/Project/Samples/bam/single/17371.bam'
p69
ag31
aS'/home/robin/Documents/Project/Samples/bam/single/17373.bam'
p70
ag31
aS'/home/robin/Documents/Project/Samples/bam/single/17374.bam'
p71
ag31
aS'/home/robin/Documents/Project/Samples/bam/single/17376.bam'
p72
ag31
aS'/home/robin/Documents/Project/Samples/bam/single/17382.bam'
p73
ag31
aS'/home/robin/Documents/Project/Samples/bam/single/17384.bam'
p74
ag31
aS'/home/robin/Documents/Project/Samples/bam/single/17386.bam'
p75
ag31
aS'/home/robin/Documents/Project/Samples/bam/single/17387.bam'
p76
ag31
aS'/home/robin/Documents/Project/Samples/bam/single/17389.bam'
p77
ag31
aS'/home/robin/Documents/Project/Samples/bam/single/17391.bam'
p78
ag31
aS'/home/robin/Documents/Project/Samples/bam/single/17392.bam'
p79
ag31
aS'/home/robin/Documents/Project/Samples/bam/single/17397.bam'
p80
ag31
aS'/home/robin/Documents/Project/Samples/bam/single/17398.bam'
p81
ag31
aS'/home/robin/Documents/Project/Samples/bam/single/17399.bam'
p82
ag31
aS'/home/robin/Documents/Project/Samples/bam/single/17401.bam'
p83
ag31
aS'/home/robin/Documents/Project/Samples/bam/single/17402.bam'
p84
ag31
aS'/home/robin/Documents/Project/Samples/bam/single/17403.bam'
p85
asS'errFile'
p86
S'/home/robin/Documents/Project/TFM_code/CNVbenchmarkeR-master/output/manta-datasetsingle/workspace/pyflow.data/logs/pyflow_tasks_stderr_log.txt'
p87
sS'outFile'
p88
S'/home/robin/Documents/Project/TFM_code/CNVbenchmarkeR-master/output/manta-datasetsingle/workspace/pyflow.data/logs/pyflow_tasks_stdout_log.txt'
p89
sS'env'
p90
NsS'nCores'
p91
I1
sS'cwd'
p92
S''
p93
s.