(dp0
S'isShellCmd'
p1
I00
sS'cmd'
p2
(lp3
S'/home/robin/Documents/Project/manta/Install/libexec/EstimateSVLoci'
p4
aS'--output-file'
p5
aS'/home/robin/Documents/Project/TFM_code/CNVbenchmarkeR-master/output/manta-datasetall/workspace/svLocusGraph.bin.tmpdir/svLocusGraph.chromId_422_Un_KI270538v1_0000_to_chromId_433_Un_KI270588v1_0000.bin'
p6
aS'--align-stats'
p7
aS'/home/robin/Documents/Project/TFM_code/CNVbenchmarkeR-master/output/manta-datasetall/workspace/alignmentStats.xml'
p8
aS'--region'
p9
aS'Un_KI270538v1:1-91309'
p10
ag9
aS'Un_KI270539v1:1-993'
p11
ag9
aS'Un_KI270544v1:1-1202'
p12
ag9
aS'Un_KI270548v1:1-1599'
p13
ag9
aS'Un_KI270579v1:1-31033'
p14
ag9
aS'Un_KI270580v1:1-1553'
p15
ag9
aS'Un_KI270581v1:1-7046'
p16
ag9
aS'Un_KI270582v1:1-6504'
p17
ag9
aS'Un_KI270583v1:1-1400'
p18
ag9
aS'Un_KI270584v1:1-4513'
p19
ag9
aS'Un_KI270587v1:1-2969'
p20
ag9
aS'Un_KI270588v1:1-6158'
p21
aS'--min-candidate-sv-size'
p22
aS'8'
p23
aS'--min-edge-observations'
p24
aS'2'
p25
aS'--ref'
p26
aS'/home/robin/Documents/Project/Samples/hg38/hg38.fa'
p27
aS'--align-file'
p28
aS'/home/robin/Documents/Project/Samples/bam/all/17296.bam'
p29
ag28
aS'/home/robin/Documents/Project/Samples/bam/all/17297.bam'
p30
ag28
aS'/home/robin/Documents/Project/Samples/bam/all/17298.bam'
p31
ag28
aS'/home/robin/Documents/Project/Samples/bam/all/17299.bam'
p32
ag28
aS'/home/robin/Documents/Project/Samples/bam/all/17300.bam'
p33
ag28
aS'/home/robin/Documents/Project/Samples/bam/all/17301.bam'
p34
ag28
aS'/home/robin/Documents/Project/Samples/bam/all/17302.bam'
p35
ag28
aS'/home/robin/Documents/Project/Samples/bam/all/17303.bam'
p36
ag28
aS'/home/robin/Documents/Project/Samples/bam/all/17304.bam'
p37
ag28
aS'/home/robin/Documents/Project/Samples/bam/all/17305.bam'
p38
ag28
aS'/home/robin/Documents/Project/Samples/bam/all/17306.bam'
p39
ag28
aS'/home/robin/Documents/Project/Samples/bam/all/17307.bam'
p40
ag28
aS'/home/robin/Documents/Project/Samples/bam/all/17308.bam'
p41
ag28
aS'/home/robin/Documents/Project/Samples/bam/all/17309.bam'
p42
ag28
aS'/home/robin/Documents/Project/Samples/bam/all/17310.bam'
p43
ag28
aS'/home/robin/Documents/Project/Samples/bam/all/17311.bam'
p44
ag28
aS'/home/robin/Documents/Project/Samples/bam/all/17312.bam'
p45
ag28
aS'/home/robin/Documents/Project/Samples/bam/all/17313.bam'
p46
ag28
aS'/home/robin/Documents/Project/Samples/bam/all/17314.bam'
p47
ag28
aS'/home/robin/Documents/Project/Samples/bam/all/17315.bam'
p48
ag28
aS'/home/robin/Documents/Project/Samples/bam/all/17316.bam'
p49
ag28
aS'/home/robin/Documents/Project/Samples/bam/all/17317.bam'
p50
ag28
aS'/home/robin/Documents/Project/Samples/bam/all/17318.bam'
p51
ag28
aS'/home/robin/Documents/Project/Samples/bam/all/17319.bam'
p52
ag28
aS'/home/robin/Documents/Project/Samples/bam/all/17320.bam'
p53
ag28
aS'/home/robin/Documents/Project/Samples/bam/all/17321.bam'
p54
ag28
aS'/home/robin/Documents/Project/Samples/bam/all/17322.bam'
p55
ag28
aS'/home/robin/Documents/Project/Samples/bam/all/17323.bam'
p56
ag28
aS'/home/robin/Documents/Project/Samples/bam/all/17324.bam'
p57
ag28
aS'/home/robin/Documents/Project/Samples/bam/all/17325.bam'
p58
ag28
aS'/home/robin/Documents/Project/Samples/bam/all/17326.bam'
p59
ag28
aS'/home/robin/Documents/Project/Samples/bam/all/17327.bam'
p60
ag28
aS'/home/robin/Documents/Project/Samples/bam/all/17328.bam'
p61
ag28
aS'/home/robin/Documents/Project/Samples/bam/all/17329.bam'
p62
ag28
aS'/home/robin/Documents/Project/Samples/bam/all/17330.bam'
p63
ag28
aS'/home/robin/Documents/Project/Samples/bam/all/17331.bam'
p64
ag28
aS'/home/robin/Documents/Project/Samples/bam/all/17332.bam'
p65
ag28
aS'/home/robin/Documents/Project/Samples/bam/all/17333.bam'
p66
ag28
aS'/home/robin/Documents/Project/Samples/bam/all/17334.bam'
p67
ag28
aS'/home/robin/Documents/Project/Samples/bam/all/17335.bam'
p68
ag28
aS'/home/robin/Documents/Project/Samples/bam/all/17336.bam'
p69
ag28
aS'/home/robin/Documents/Project/Samples/bam/all/17337.bam'
p70
ag28
aS'/home/robin/Documents/Project/Samples/bam/all/17338.bam'
p71
ag28
aS'/home/robin/Documents/Project/Samples/bam/all/17339.bam'
p72
ag28
aS'/home/robin/Documents/Project/Samples/bam/all/17340.bam'
p73
ag28
aS'/home/robin/Documents/Project/Samples/bam/all/17341.bam'
p74
ag28
aS'/home/robin/Documents/Project/Samples/bam/all/17342.bam'
p75
ag28
aS'/home/robin/Documents/Project/Samples/bam/all/17343.bam'
p76
ag28
aS'/home/robin/Documents/Project/Samples/bam/all/17356.bam'
p77
ag28
aS'/home/robin/Documents/Project/Samples/bam/all/17357.bam'
p78
ag28
aS'/home/robin/Documents/Project/Samples/bam/all/17358.bam'
p79
ag28
aS'/home/robin/Documents/Project/Samples/bam/all/17359.bam'
p80
ag28
aS'/home/robin/Documents/Project/Samples/bam/all/17360.bam'
p81
ag28
aS'/home/robin/Documents/Project/Samples/bam/all/17361.bam'
p82
ag28
aS'/home/robin/Documents/Project/Samples/bam/all/17362.bam'
p83
ag28
aS'/home/robin/Documents/Project/Samples/bam/all/17363.bam'
p84
ag28
aS'/home/robin/Documents/Project/Samples/bam/all/17364.bam'
p85
ag28
aS'/home/robin/Documents/Project/Samples/bam/all/17365.bam'
p86
ag28
aS'/home/robin/Documents/Project/Samples/bam/all/17366.bam'
p87
ag28
aS'/home/robin/Documents/Project/Samples/bam/all/17367.bam'
p88
ag28
aS'/home/robin/Documents/Project/Samples/bam/all/17368.bam'
p89
ag28
aS'/home/robin/Documents/Project/Samples/bam/all/17369.bam'
p90
ag28
aS'/home/robin/Documents/Project/Samples/bam/all/17370.bam'
p91
ag28
aS'/home/robin/Documents/Project/Samples/bam/all/17371.bam'
p92
ag28
aS'/home/robin/Documents/Project/Samples/bam/all/17372.bam'
p93
ag28
aS'/home/robin/Documents/Project/Samples/bam/all/17373.bam'
p94
ag28
aS'/home/robin/Documents/Project/Samples/bam/all/17374.bam'
p95
ag28
aS'/home/robin/Documents/Project/Samples/bam/all/17375.bam'
p96
ag28
aS'/home/robin/Documents/Project/Samples/bam/all/17376.bam'
p97
ag28
aS'/home/robin/Documents/Project/Samples/bam/all/17377.bam'
p98
ag28
aS'/home/robin/Documents/Project/Samples/bam/all/17378.bam'
p99
ag28
aS'/home/robin/Documents/Project/Samples/bam/all/17379.bam'
p100
ag28
aS'/home/robin/Documents/Project/Samples/bam/all/17380.bam'
p101
ag28
aS'/home/robin/Documents/Project/Samples/bam/all/17381.bam'
p102
ag28
aS'/home/robin/Documents/Project/Samples/bam/all/17382.bam'
p103
ag28
aS'/home/robin/Documents/Project/Samples/bam/all/17383.bam'
p104
ag28
aS'/home/robin/Documents/Project/Samples/bam/all/17384.bam'
p105
ag28
aS'/home/robin/Documents/Project/Samples/bam/all/17385.bam'
p106
ag28
aS'/home/robin/Documents/Project/Samples/bam/all/17386.bam'
p107
ag28
aS'/home/robin/Documents/Project/Samples/bam/all/17387.bam'
p108
ag28
aS'/home/robin/Documents/Project/Samples/bam/all/17388.bam'
p109
ag28
aS'/home/robin/Documents/Project/Samples/bam/all/17389.bam'
p110
ag28
aS'/home/robin/Documents/Project/Samples/bam/all/17390.bam'
p111
ag28
aS'/home/robin/Documents/Project/Samples/bam/all/17391.bam'
p112
ag28
aS'/home/robin/Documents/Project/Samples/bam/all/17392.bam'
p113
ag28
aS'/home/robin/Documents/Project/Samples/bam/all/17393.bam'
p114
ag28
aS'/home/robin/Documents/Project/Samples/bam/all/17394.bam'
p115
ag28
aS'/home/robin/Documents/Project/Samples/bam/all/17395.bam'
p116
ag28
aS'/home/robin/Documents/Project/Samples/bam/all/17396.bam'
p117
ag28
aS'/home/robin/Documents/Project/Samples/bam/all/17397.bam'
p118
ag28
aS'/home/robin/Documents/Project/Samples/bam/all/17398.bam'
p119
ag28
aS'/home/robin/Documents/Project/Samples/bam/all/17399.bam'
p120
ag28
aS'/home/robin/Documents/Project/Samples/bam/all/17400.bam'
p121
ag28
aS'/home/robin/Documents/Project/Samples/bam/all/17401.bam'
p122
ag28
aS'/home/robin/Documents/Project/Samples/bam/all/17402.bam'
p123
ag28
aS'/home/robin/Documents/Project/Samples/bam/all/17403.bam'
p124
asS'errFile'
p125
S'/home/robin/Documents/Project/TFM_code/CNVbenchmarkeR-master/output/manta-datasetall/workspace/pyflow.data/logs/pyflow_tasks_stderr_log.txt'
p126
sS'outFile'
p127
S'/home/robin/Documents/Project/TFM_code/CNVbenchmarkeR-master/output/manta-datasetall/workspace/pyflow.data/logs/pyflow_tasks_stdout_log.txt'
p128
sS'env'
p129
NsS'nCores'
p130
I1
sS'cwd'
p131
S''
p132
s.