(dp0
S'isShellCmd'
p1
I00
sS'cmd'
p2
(lp3
S'/home/robin/Documents/Project/manta/Install/libexec/MergeAlignmentStats'
p4
aS'--output-file'
p5
aS'/home/robin/Documents/Project/TFM_code/CNVbenchmarkeR-master/output/manta-datasetall/workspace/alignmentStats.xml'
p6
aS'--align-stats-file'
p7
aS'/home/robin/Documents/Project/TFM_code/CNVbenchmarkeR-master/output/manta-datasetall/workspace/alignmentStats.xml.tmpdir/alignmentStats.xml.000.xml'
p8
ag7
aS'/home/robin/Documents/Project/TFM_code/CNVbenchmarkeR-master/output/manta-datasetall/workspace/alignmentStats.xml.tmpdir/alignmentStats.xml.001.xml'
p9
ag7
aS'/home/robin/Documents/Project/TFM_code/CNVbenchmarkeR-master/output/manta-datasetall/workspace/alignmentStats.xml.tmpdir/alignmentStats.xml.002.xml'
p10
ag7
aS'/home/robin/Documents/Project/TFM_code/CNVbenchmarkeR-master/output/manta-datasetall/workspace/alignmentStats.xml.tmpdir/alignmentStats.xml.003.xml'
p11
ag7
aS'/home/robin/Documents/Project/TFM_code/CNVbenchmarkeR-master/output/manta-datasetall/workspace/alignmentStats.xml.tmpdir/alignmentStats.xml.004.xml'
p12
ag7
aS'/home/robin/Documents/Project/TFM_code/CNVbenchmarkeR-master/output/manta-datasetall/workspace/alignmentStats.xml.tmpdir/alignmentStats.xml.005.xml'
p13
ag7
aS'/home/robin/Documents/Project/TFM_code/CNVbenchmarkeR-master/output/manta-datasetall/workspace/alignmentStats.xml.tmpdir/alignmentStats.xml.006.xml'
p14
ag7
aS'/home/robin/Documents/Project/TFM_code/CNVbenchmarkeR-master/output/manta-datasetall/workspace/alignmentStats.xml.tmpdir/alignmentStats.xml.007.xml'
p15
ag7
aS'/home/robin/Documents/Project/TFM_code/CNVbenchmarkeR-master/output/manta-datasetall/workspace/alignmentStats.xml.tmpdir/alignmentStats.xml.008.xml'
p16
ag7
aS'/home/robin/Documents/Project/TFM_code/CNVbenchmarkeR-master/output/manta-datasetall/workspace/alignmentStats.xml.tmpdir/alignmentStats.xml.009.xml'
p17
ag7
aS'/home/robin/Documents/Project/TFM_code/CNVbenchmarkeR-master/output/manta-datasetall/workspace/alignmentStats.xml.tmpdir/alignmentStats.xml.010.xml'
p18
ag7
aS'/home/robin/Documents/Project/TFM_code/CNVbenchmarkeR-master/output/manta-datasetall/workspace/alignmentStats.xml.tmpdir/alignmentStats.xml.011.xml'
p19
ag7
aS'/home/robin/Documents/Project/TFM_code/CNVbenchmarkeR-master/output/manta-datasetall/workspace/alignmentStats.xml.tmpdir/alignmentStats.xml.012.xml'
p20
ag7
aS'/home/robin/Documents/Project/TFM_code/CNVbenchmarkeR-master/output/manta-datasetall/workspace/alignmentStats.xml.tmpdir/alignmentStats.xml.013.xml'
p21
ag7
aS'/home/robin/Documents/Project/TFM_code/CNVbenchmarkeR-master/output/manta-datasetall/workspace/alignmentStats.xml.tmpdir/alignmentStats.xml.014.xml'
p22
ag7
aS'/home/robin/Documents/Project/TFM_code/CNVbenchmarkeR-master/output/manta-datasetall/workspace/alignmentStats.xml.tmpdir/alignmentStats.xml.015.xml'
p23
ag7
aS'/home/robin/Documents/Project/TFM_code/CNVbenchmarkeR-master/output/manta-datasetall/workspace/alignmentStats.xml.tmpdir/alignmentStats.xml.016.xml'
p24
ag7
aS'/home/robin/Documents/Project/TFM_code/CNVbenchmarkeR-master/output/manta-datasetall/workspace/alignmentStats.xml.tmpdir/alignmentStats.xml.017.xml'
p25
ag7
aS'/home/robin/Documents/Project/TFM_code/CNVbenchmarkeR-master/output/manta-datasetall/workspace/alignmentStats.xml.tmpdir/alignmentStats.xml.018.xml'
p26
ag7
aS'/home/robin/Documents/Project/TFM_code/CNVbenchmarkeR-master/output/manta-datasetall/workspace/alignmentStats.xml.tmpdir/alignmentStats.xml.019.xml'
p27
ag7
aS'/home/robin/Documents/Project/TFM_code/CNVbenchmarkeR-master/output/manta-datasetall/workspace/alignmentStats.xml.tmpdir/alignmentStats.xml.020.xml'
p28
ag7
aS'/home/robin/Documents/Project/TFM_code/CNVbenchmarkeR-master/output/manta-datasetall/workspace/alignmentStats.xml.tmpdir/alignmentStats.xml.021.xml'
p29
ag7
aS'/home/robin/Documents/Project/TFM_code/CNVbenchmarkeR-master/output/manta-datasetall/workspace/alignmentStats.xml.tmpdir/alignmentStats.xml.022.xml'
p30
ag7
aS'/home/robin/Documents/Project/TFM_code/CNVbenchmarkeR-master/output/manta-datasetall/workspace/alignmentStats.xml.tmpdir/alignmentStats.xml.023.xml'
p31
ag7
aS'/home/robin/Documents/Project/TFM_code/CNVbenchmarkeR-master/output/manta-datasetall/workspace/alignmentStats.xml.tmpdir/alignmentStats.xml.024.xml'
p32
ag7
aS'/home/robin/Documents/Project/TFM_code/CNVbenchmarkeR-master/output/manta-datasetall/workspace/alignmentStats.xml.tmpdir/alignmentStats.xml.025.xml'
p33
ag7
aS'/home/robin/Documents/Project/TFM_code/CNVbenchmarkeR-master/output/manta-datasetall/workspace/alignmentStats.xml.tmpdir/alignmentStats.xml.026.xml'
p34
ag7
aS'/home/robin/Documents/Project/TFM_code/CNVbenchmarkeR-master/output/manta-datasetall/workspace/alignmentStats.xml.tmpdir/alignmentStats.xml.027.xml'
p35
ag7
aS'/home/robin/Documents/Project/TFM_code/CNVbenchmarkeR-master/output/manta-datasetall/workspace/alignmentStats.xml.tmpdir/alignmentStats.xml.028.xml'
p36
ag7
aS'/home/robin/Documents/Project/TFM_code/CNVbenchmarkeR-master/output/manta-datasetall/workspace/alignmentStats.xml.tmpdir/alignmentStats.xml.029.xml'
p37
ag7
aS'/home/robin/Documents/Project/TFM_code/CNVbenchmarkeR-master/output/manta-datasetall/workspace/alignmentStats.xml.tmpdir/alignmentStats.xml.030.xml'
p38
ag7
aS'/home/robin/Documents/Project/TFM_code/CNVbenchmarkeR-master/output/manta-datasetall/workspace/alignmentStats.xml.tmpdir/alignmentStats.xml.031.xml'
p39
ag7
aS'/home/robin/Documents/Project/TFM_code/CNVbenchmarkeR-master/output/manta-datasetall/workspace/alignmentStats.xml.tmpdir/alignmentStats.xml.032.xml'
p40
ag7
aS'/home/robin/Documents/Project/TFM_code/CNVbenchmarkeR-master/output/manta-datasetall/workspace/alignmentStats.xml.tmpdir/alignmentStats.xml.033.xml'
p41
ag7
aS'/home/robin/Documents/Project/TFM_code/CNVbenchmarkeR-master/output/manta-datasetall/workspace/alignmentStats.xml.tmpdir/alignmentStats.xml.034.xml'
p42
ag7
aS'/home/robin/Documents/Project/TFM_code/CNVbenchmarkeR-master/output/manta-datasetall/workspace/alignmentStats.xml.tmpdir/alignmentStats.xml.035.xml'
p43
ag7
aS'/home/robin/Documents/Project/TFM_code/CNVbenchmarkeR-master/output/manta-datasetall/workspace/alignmentStats.xml.tmpdir/alignmentStats.xml.036.xml'
p44
ag7
aS'/home/robin/Documents/Project/TFM_code/CNVbenchmarkeR-master/output/manta-datasetall/workspace/alignmentStats.xml.tmpdir/alignmentStats.xml.037.xml'
p45
ag7
aS'/home/robin/Documents/Project/TFM_code/CNVbenchmarkeR-master/output/manta-datasetall/workspace/alignmentStats.xml.tmpdir/alignmentStats.xml.038.xml'
p46
ag7
aS'/home/robin/Documents/Project/TFM_code/CNVbenchmarkeR-master/output/manta-datasetall/workspace/alignmentStats.xml.tmpdir/alignmentStats.xml.039.xml'
p47
ag7
aS'/home/robin/Documents/Project/TFM_code/CNVbenchmarkeR-master/output/manta-datasetall/workspace/alignmentStats.xml.tmpdir/alignmentStats.xml.040.xml'
p48
ag7
aS'/home/robin/Documents/Project/TFM_code/CNVbenchmarkeR-master/output/manta-datasetall/workspace/alignmentStats.xml.tmpdir/alignmentStats.xml.041.xml'
p49
ag7
aS'/home/robin/Documents/Project/TFM_code/CNVbenchmarkeR-master/output/manta-datasetall/workspace/alignmentStats.xml.tmpdir/alignmentStats.xml.042.xml'
p50
ag7
aS'/home/robin/Documents/Project/TFM_code/CNVbenchmarkeR-master/output/manta-datasetall/workspace/alignmentStats.xml.tmpdir/alignmentStats.xml.043.xml'
p51
ag7
aS'/home/robin/Documents/Project/TFM_code/CNVbenchmarkeR-master/output/manta-datasetall/workspace/alignmentStats.xml.tmpdir/alignmentStats.xml.044.xml'
p52
ag7
aS'/home/robin/Documents/Project/TFM_code/CNVbenchmarkeR-master/output/manta-datasetall/workspace/alignmentStats.xml.tmpdir/alignmentStats.xml.045.xml'
p53
ag7
aS'/home/robin/Documents/Project/TFM_code/CNVbenchmarkeR-master/output/manta-datasetall/workspace/alignmentStats.xml.tmpdir/alignmentStats.xml.046.xml'
p54
ag7
aS'/home/robin/Documents/Project/TFM_code/CNVbenchmarkeR-master/output/manta-datasetall/workspace/alignmentStats.xml.tmpdir/alignmentStats.xml.047.xml'
p55
ag7
aS'/home/robin/Documents/Project/TFM_code/CNVbenchmarkeR-master/output/manta-datasetall/workspace/alignmentStats.xml.tmpdir/alignmentStats.xml.048.xml'
p56
ag7
aS'/home/robin/Documents/Project/TFM_code/CNVbenchmarkeR-master/output/manta-datasetall/workspace/alignmentStats.xml.tmpdir/alignmentStats.xml.049.xml'
p57
ag7
aS'/home/robin/Documents/Project/TFM_code/CNVbenchmarkeR-master/output/manta-datasetall/workspace/alignmentStats.xml.tmpdir/alignmentStats.xml.050.xml'
p58
ag7
aS'/home/robin/Documents/Project/TFM_code/CNVbenchmarkeR-master/output/manta-datasetall/workspace/alignmentStats.xml.tmpdir/alignmentStats.xml.051.xml'
p59
ag7
aS'/home/robin/Documents/Project/TFM_code/CNVbenchmarkeR-master/output/manta-datasetall/workspace/alignmentStats.xml.tmpdir/alignmentStats.xml.052.xml'
p60
ag7
aS'/home/robin/Documents/Project/TFM_code/CNVbenchmarkeR-master/output/manta-datasetall/workspace/alignmentStats.xml.tmpdir/alignmentStats.xml.053.xml'
p61
ag7
aS'/home/robin/Documents/Project/TFM_code/CNVbenchmarkeR-master/output/manta-datasetall/workspace/alignmentStats.xml.tmpdir/alignmentStats.xml.054.xml'
p62
ag7
aS'/home/robin/Documents/Project/TFM_code/CNVbenchmarkeR-master/output/manta-datasetall/workspace/alignmentStats.xml.tmpdir/alignmentStats.xml.055.xml'
p63
ag7
aS'/home/robin/Documents/Project/TFM_code/CNVbenchmarkeR-master/output/manta-datasetall/workspace/alignmentStats.xml.tmpdir/alignmentStats.xml.056.xml'
p64
ag7
aS'/home/robin/Documents/Project/TFM_code/CNVbenchmarkeR-master/output/manta-datasetall/workspace/alignmentStats.xml.tmpdir/alignmentStats.xml.057.xml'
p65
ag7
aS'/home/robin/Documents/Project/TFM_code/CNVbenchmarkeR-master/output/manta-datasetall/workspace/alignmentStats.xml.tmpdir/alignmentStats.xml.058.xml'
p66
ag7
aS'/home/robin/Documents/Project/TFM_code/CNVbenchmarkeR-master/output/manta-datasetall/workspace/alignmentStats.xml.tmpdir/alignmentStats.xml.059.xml'
p67
ag7
aS'/home/robin/Documents/Project/TFM_code/CNVbenchmarkeR-master/output/manta-datasetall/workspace/alignmentStats.xml.tmpdir/alignmentStats.xml.060.xml'
p68
ag7
aS'/home/robin/Documents/Project/TFM_code/CNVbenchmarkeR-master/output/manta-datasetall/workspace/alignmentStats.xml.tmpdir/alignmentStats.xml.061.xml'
p69
ag7
aS'/home/robin/Documents/Project/TFM_code/CNVbenchmarkeR-master/output/manta-datasetall/workspace/alignmentStats.xml.tmpdir/alignmentStats.xml.062.xml'
p70
ag7
aS'/home/robin/Documents/Project/TFM_code/CNVbenchmarkeR-master/output/manta-datasetall/workspace/alignmentStats.xml.tmpdir/alignmentStats.xml.063.xml'
p71
ag7
aS'/home/robin/Documents/Project/TFM_code/CNVbenchmarkeR-master/output/manta-datasetall/workspace/alignmentStats.xml.tmpdir/alignmentStats.xml.064.xml'
p72
ag7
aS'/home/robin/Documents/Project/TFM_code/CNVbenchmarkeR-master/output/manta-datasetall/workspace/alignmentStats.xml.tmpdir/alignmentStats.xml.065.xml'
p73
ag7
aS'/home/robin/Documents/Project/TFM_code/CNVbenchmarkeR-master/output/manta-datasetall/workspace/alignmentStats.xml.tmpdir/alignmentStats.xml.066.xml'
p74
ag7
aS'/home/robin/Documents/Project/TFM_code/CNVbenchmarkeR-master/output/manta-datasetall/workspace/alignmentStats.xml.tmpdir/alignmentStats.xml.067.xml'
p75
ag7
aS'/home/robin/Documents/Project/TFM_code/CNVbenchmarkeR-master/output/manta-datasetall/workspace/alignmentStats.xml.tmpdir/alignmentStats.xml.068.xml'
p76
ag7
aS'/home/robin/Documents/Project/TFM_code/CNVbenchmarkeR-master/output/manta-datasetall/workspace/alignmentStats.xml.tmpdir/alignmentStats.xml.069.xml'
p77
ag7
aS'/home/robin/Documents/Project/TFM_code/CNVbenchmarkeR-master/output/manta-datasetall/workspace/alignmentStats.xml.tmpdir/alignmentStats.xml.070.xml'
p78
ag7
aS'/home/robin/Documents/Project/TFM_code/CNVbenchmarkeR-master/output/manta-datasetall/workspace/alignmentStats.xml.tmpdir/alignmentStats.xml.071.xml'
p79
ag7
aS'/home/robin/Documents/Project/TFM_code/CNVbenchmarkeR-master/output/manta-datasetall/workspace/alignmentStats.xml.tmpdir/alignmentStats.xml.072.xml'
p80
ag7
aS'/home/robin/Documents/Project/TFM_code/CNVbenchmarkeR-master/output/manta-datasetall/workspace/alignmentStats.xml.tmpdir/alignmentStats.xml.073.xml'
p81
ag7
aS'/home/robin/Documents/Project/TFM_code/CNVbenchmarkeR-master/output/manta-datasetall/workspace/alignmentStats.xml.tmpdir/alignmentStats.xml.074.xml'
p82
ag7
aS'/home/robin/Documents/Project/TFM_code/CNVbenchmarkeR-master/output/manta-datasetall/workspace/alignmentStats.xml.tmpdir/alignmentStats.xml.075.xml'
p83
ag7
aS'/home/robin/Documents/Project/TFM_code/CNVbenchmarkeR-master/output/manta-datasetall/workspace/alignmentStats.xml.tmpdir/alignmentStats.xml.076.xml'
p84
ag7
aS'/home/robin/Documents/Project/TFM_code/CNVbenchmarkeR-master/output/manta-datasetall/workspace/alignmentStats.xml.tmpdir/alignmentStats.xml.077.xml'
p85
ag7
aS'/home/robin/Documents/Project/TFM_code/CNVbenchmarkeR-master/output/manta-datasetall/workspace/alignmentStats.xml.tmpdir/alignmentStats.xml.078.xml'
p86
ag7
aS'/home/robin/Documents/Project/TFM_code/CNVbenchmarkeR-master/output/manta-datasetall/workspace/alignmentStats.xml.tmpdir/alignmentStats.xml.079.xml'
p87
ag7
aS'/home/robin/Documents/Project/TFM_code/CNVbenchmarkeR-master/output/manta-datasetall/workspace/alignmentStats.xml.tmpdir/alignmentStats.xml.080.xml'
p88
ag7
aS'/home/robin/Documents/Project/TFM_code/CNVbenchmarkeR-master/output/manta-datasetall/workspace/alignmentStats.xml.tmpdir/alignmentStats.xml.081.xml'
p89
ag7
aS'/home/robin/Documents/Project/TFM_code/CNVbenchmarkeR-master/output/manta-datasetall/workspace/alignmentStats.xml.tmpdir/alignmentStats.xml.082.xml'
p90
ag7
aS'/home/robin/Documents/Project/TFM_code/CNVbenchmarkeR-master/output/manta-datasetall/workspace/alignmentStats.xml.tmpdir/alignmentStats.xml.083.xml'
p91
ag7
aS'/home/robin/Documents/Project/TFM_code/CNVbenchmarkeR-master/output/manta-datasetall/workspace/alignmentStats.xml.tmpdir/alignmentStats.xml.084.xml'
p92
ag7
aS'/home/robin/Documents/Project/TFM_code/CNVbenchmarkeR-master/output/manta-datasetall/workspace/alignmentStats.xml.tmpdir/alignmentStats.xml.085.xml'
p93
ag7
aS'/home/robin/Documents/Project/TFM_code/CNVbenchmarkeR-master/output/manta-datasetall/workspace/alignmentStats.xml.tmpdir/alignmentStats.xml.086.xml'
p94
ag7
aS'/home/robin/Documents/Project/TFM_code/CNVbenchmarkeR-master/output/manta-datasetall/workspace/alignmentStats.xml.tmpdir/alignmentStats.xml.087.xml'
p95
ag7
aS'/home/robin/Documents/Project/TFM_code/CNVbenchmarkeR-master/output/manta-datasetall/workspace/alignmentStats.xml.tmpdir/alignmentStats.xml.088.xml'
p96
ag7
aS'/home/robin/Documents/Project/TFM_code/CNVbenchmarkeR-master/output/manta-datasetall/workspace/alignmentStats.xml.tmpdir/alignmentStats.xml.089.xml'
p97
ag7
aS'/home/robin/Documents/Project/TFM_code/CNVbenchmarkeR-master/output/manta-datasetall/workspace/alignmentStats.xml.tmpdir/alignmentStats.xml.090.xml'
p98
ag7
aS'/home/robin/Documents/Project/TFM_code/CNVbenchmarkeR-master/output/manta-datasetall/workspace/alignmentStats.xml.tmpdir/alignmentStats.xml.091.xml'
p99
ag7
aS'/home/robin/Documents/Project/TFM_code/CNVbenchmarkeR-master/output/manta-datasetall/workspace/alignmentStats.xml.tmpdir/alignmentStats.xml.092.xml'
p100
ag7
aS'/home/robin/Documents/Project/TFM_code/CNVbenchmarkeR-master/output/manta-datasetall/workspace/alignmentStats.xml.tmpdir/alignmentStats.xml.093.xml'
p101
ag7
aS'/home/robin/Documents/Project/TFM_code/CNVbenchmarkeR-master/output/manta-datasetall/workspace/alignmentStats.xml.tmpdir/alignmentStats.xml.094.xml'
p102
ag7
aS'/home/robin/Documents/Project/TFM_code/CNVbenchmarkeR-master/output/manta-datasetall/workspace/alignmentStats.xml.tmpdir/alignmentStats.xml.095.xml'
p103
asS'errFile'
p104
S'/home/robin/Documents/Project/TFM_code/CNVbenchmarkeR-master/output/manta-datasetall/workspace/pyflow.data/logs/pyflow_tasks_stderr_log.txt'
p105
sS'outFile'
p106
S'/home/robin/Documents/Project/TFM_code/CNVbenchmarkeR-master/output/manta-datasetall/workspace/pyflow.data/logs/pyflow_tasks_stdout_log.txt'
p107
sS'env'
p108
NsS'nCores'
p109
I1
sS'cwd'
p110
S''
p111
s.