(dp0
S'manta'
p1
(dp2
S'mantaMergeStatsBin'
p3
S'/home/robin/Documents/Project/manta/Install/libexec/MergeAlignmentStats'
p4
sS'isExome'
p5
I01
sS'enableEvidenceSignalFilter'
p6
S'1'
p7
sS'existingAlignStatsFile'
p8
NsS'referenceFasta'
p9
S'/home/robin/Documents/Project/Samples/hg38/hg38.fa'
p10
sS'hyGenSGEMemMb'
p11
I4096
sS'minPassSomaticScore'
p12
S'30'
p13
sS'tumorBamList'
p14
NsS'workflowScriptName'
p15
S'runWorkflow.py'
p16
sS'normalBamList'
p17
(lp18
S'/home/robin/Documents/Project/Samples/bam/all/17296.bam'
p19
aS'/home/robin/Documents/Project/Samples/bam/all/17297.bam'
p20
aS'/home/robin/Documents/Project/Samples/bam/all/17298.bam'
p21
aS'/home/robin/Documents/Project/Samples/bam/all/17299.bam'
p22
aS'/home/robin/Documents/Project/Samples/bam/all/17300.bam'
p23
aS'/home/robin/Documents/Project/Samples/bam/all/17301.bam'
p24
aS'/home/robin/Documents/Project/Samples/bam/all/17302.bam'
p25
aS'/home/robin/Documents/Project/Samples/bam/all/17303.bam'
p26
aS'/home/robin/Documents/Project/Samples/bam/all/17304.bam'
p27
aS'/home/robin/Documents/Project/Samples/bam/all/17305.bam'
p28
aS'/home/robin/Documents/Project/Samples/bam/all/17306.bam'
p29
aS'/home/robin/Documents/Project/Samples/bam/all/17307.bam'
p30
aS'/home/robin/Documents/Project/Samples/bam/all/17308.bam'
p31
aS'/home/robin/Documents/Project/Samples/bam/all/17309.bam'
p32
aS'/home/robin/Documents/Project/Samples/bam/all/17310.bam'
p33
aS'/home/robin/Documents/Project/Samples/bam/all/17311.bam'
p34
aS'/home/robin/Documents/Project/Samples/bam/all/17312.bam'
p35
aS'/home/robin/Documents/Project/Samples/bam/all/17313.bam'
p36
aS'/home/robin/Documents/Project/Samples/bam/all/17314.bam'
p37
aS'/home/robin/Documents/Project/Samples/bam/all/17315.bam'
p38
aS'/home/robin/Documents/Project/Samples/bam/all/17316.bam'
p39
aS'/home/robin/Documents/Project/Samples/bam/all/17317.bam'
p40
aS'/home/robin/Documents/Project/Samples/bam/all/17318.bam'
p41
aS'/home/robin/Documents/Project/Samples/bam/all/17319.bam'
p42
aS'/home/robin/Documents/Project/Samples/bam/all/17320.bam'
p43
aS'/home/robin/Documents/Project/Samples/bam/all/17321.bam'
p44
aS'/home/robin/Documents/Project/Samples/bam/all/17322.bam'
p45
aS'/home/robin/Documents/Project/Samples/bam/all/17323.bam'
p46
aS'/home/robin/Documents/Project/Samples/bam/all/17324.bam'
p47
aS'/home/robin/Documents/Project/Samples/bam/all/17325.bam'
p48
aS'/home/robin/Documents/Project/Samples/bam/all/17326.bam'
p49
aS'/home/robin/Documents/Project/Samples/bam/all/17327.bam'
p50
aS'/home/robin/Documents/Project/Samples/bam/all/17328.bam'
p51
aS'/home/robin/Documents/Project/Samples/bam/all/17329.bam'
p52
aS'/home/robin/Documents/Project/Samples/bam/all/17330.bam'
p53
aS'/home/robin/Documents/Project/Samples/bam/all/17331.bam'
p54
aS'/home/robin/Documents/Project/Samples/bam/all/17332.bam'
p55
aS'/home/robin/Documents/Project/Samples/bam/all/17333.bam'
p56
aS'/home/robin/Documents/Project/Samples/bam/all/17334.bam'
p57
aS'/home/robin/Documents/Project/Samples/bam/all/17335.bam'
p58
aS'/home/robin/Documents/Project/Samples/bam/all/17336.bam'
p59
aS'/home/robin/Documents/Project/Samples/bam/all/17337.bam'
p60
aS'/home/robin/Documents/Project/Samples/bam/all/17338.bam'
p61
aS'/home/robin/Documents/Project/Samples/bam/all/17339.bam'
p62
aS'/home/robin/Documents/Project/Samples/bam/all/17340.bam'
p63
aS'/home/robin/Documents/Project/Samples/bam/all/17341.bam'
p64
aS'/home/robin/Documents/Project/Samples/bam/all/17342.bam'
p65
aS'/home/robin/Documents/Project/Samples/bam/all/17343.bam'
p66
aS'/home/robin/Documents/Project/Samples/bam/all/17356.bam'
p67
aS'/home/robin/Documents/Project/Samples/bam/all/17357.bam'
p68
aS'/home/robin/Documents/Project/Samples/bam/all/17358.bam'
p69
aS'/home/robin/Documents/Project/Samples/bam/all/17359.bam'
p70
aS'/home/robin/Documents/Project/Samples/bam/all/17360.bam'
p71
aS'/home/robin/Documents/Project/Samples/bam/all/17361.bam'
p72
aS'/home/robin/Documents/Project/Samples/bam/all/17362.bam'
p73
aS'/home/robin/Documents/Project/Samples/bam/all/17363.bam'
p74
aS'/home/robin/Documents/Project/Samples/bam/all/17364.bam'
p75
aS'/home/robin/Documents/Project/Samples/bam/all/17365.bam'
p76
aS'/home/robin/Documents/Project/Samples/bam/all/17366.bam'
p77
aS'/home/robin/Documents/Project/Samples/bam/all/17367.bam'
p78
aS'/home/robin/Documents/Project/Samples/bam/all/17368.bam'
p79
aS'/home/robin/Documents/Project/Samples/bam/all/17369.bam'
p80
aS'/home/robin/Documents/Project/Samples/bam/all/17370.bam'
p81
aS'/home/robin/Documents/Project/Samples/bam/all/17371.bam'
p82
aS'/home/robin/Documents/Project/Samples/bam/all/17372.bam'
p83
aS'/home/robin/Documents/Project/Samples/bam/all/17373.bam'
p84
aS'/home/robin/Documents/Project/Samples/bam/all/17374.bam'
p85
aS'/home/robin/Documents/Project/Samples/bam/all/17375.bam'
p86
aS'/home/robin/Documents/Project/Samples/bam/all/17376.bam'
p87
aS'/home/robin/Documents/Project/Samples/bam/all/17377.bam'
p88
aS'/home/robin/Documents/Project/Samples/bam/all/17378.bam'
p89
aS'/home/robin/Documents/Project/Samples/bam/all/17379.bam'
p90
aS'/home/robin/Documents/Project/Samples/bam/all/17380.bam'
p91
aS'/home/robin/Documents/Project/Samples/bam/all/17381.bam'
p92
aS'/home/robin/Documents/Project/Samples/bam/all/17382.bam'
p93
aS'/home/robin/Documents/Project/Samples/bam/all/17383.bam'
p94
aS'/home/robin/Documents/Project/Samples/bam/all/17384.bam'
p95
aS'/home/robin/Documents/Project/Samples/bam/all/17385.bam'
p96
aS'/home/robin/Documents/Project/Samples/bam/all/17386.bam'
p97
aS'/home/robin/Documents/Project/Samples/bam/all/17387.bam'
p98
aS'/home/robin/Documents/Project/Samples/bam/all/17388.bam'
p99
aS'/home/robin/Documents/Project/Samples/bam/all/17389.bam'
p100
aS'/home/robin/Documents/Project/Samples/bam/all/17390.bam'
p101
aS'/home/robin/Documents/Project/Samples/bam/all/17391.bam'
p102
aS'/home/robin/Documents/Project/Samples/bam/all/17392.bam'
p103
aS'/home/robin/Documents/Project/Samples/bam/all/17393.bam'
p104
aS'/home/robin/Documents/Project/Samples/bam/all/17394.bam'
p105
aS'/home/robin/Documents/Project/Samples/bam/all/17395.bam'
p106
aS'/home/robin/Documents/Project/Samples/bam/all/17396.bam'
p107
aS'/home/robin/Documents/Project/Samples/bam/all/17397.bam'
p108
aS'/home/robin/Documents/Project/Samples/bam/all/17398.bam'
p109
aS'/home/robin/Documents/Project/Samples/bam/all/17399.bam'
p110
aS'/home/robin/Documents/Project/Samples/bam/all/17400.bam'
p111
aS'/home/robin/Documents/Project/Samples/bam/all/17401.bam'
p112
aS'/home/robin/Documents/Project/Samples/bam/all/17402.bam'
p113
aS'/home/robin/Documents/Project/Samples/bam/all/17403.bam'
p114
asS'estimateMemMb'
p115
F1536.0
sS'mantaSortVcf'
p116
S'/home/robin/Documents/Project/manta/Install/libexec/sortVcf.py'
p117
sS'scanSizeMb'
p118
I12
sS'libexecDir'
p119
S'/home/robin/Documents/Project/manta/Install/libexec'
p120
sS'isRetainTempFiles'
p121
I00
sS'isRNA'
p122
I00
sS'mantaSortEdgeLogs'
p123
S'/home/robin/Documents/Project/manta/Install/libexec/sortEdgeLogs.py'
p124
sS'tabixBin'
p125
S'/home/robin/Documents/Project/manta/Install/libexec/tabix'
p126
sS'rnaMinCandidateVariantSize'
p127
S'1000'
p128
sS'callRegionsBed'
p129
NsS'mantaPloidyFilter'
p130
S'/home/robin/Documents/Project/manta/Install/libexec/ploidyFilter.py'
p131
sS'mantaSortBam'
p132
S'/home/robin/Documents/Project/manta/Install/libexec/sortBam.py'
p133
sS'samtoolsBin'
p134
S'/home/robin/Documents/Project/manta/Install/libexec/samtools'
p135
sS'useExistingChromDepths'
p136
I00
sS'vcfCmdlineSwapper'
p137
S'/home/robin/Documents/Project/manta/Install/libexec/vcfCmdlineSwapper.py'
p138
sS'mantaExtraSmallVcf'
p139
S'/home/robin/Documents/Project/manta/Install/libexec/extractSmallIndelCandidates.py'
p140
sS'mantaMergeBam'
p141
S'/home/robin/Documents/Project/manta/Install/libexec/mergeBam.py'
p142
sS'mantaStatsSummaryBin'
p143
S'/home/robin/Documents/Project/manta/Install/libexec/SummarizeAlignmentStats'
p144
sS'minScoredVariantSize'
p145
S'50'
p146
sS'mantaGraphStatsBin'
p147
S'/home/robin/Documents/Project/manta/Install/libexec/SummarizeSVLoci'
p148
sS'mantaGraphCheckBin'
p149
S'/home/robin/Documents/Project/manta/Install/libexec/CheckSVLoci'
p150
sS'minSomaticScore'
p151
S'10'
p152
sS'minCandidateVariantSize'
p153
S'8'
p154
sS'mantaGraphMergeBin'
p155
S'/home/robin/Documents/Project/manta/Install/libexec/MergeSVLoci'
p156
sS'genomeRegionList'
p157
NsS'getChromDepthBin'
p158
S'/home/robin/Documents/Project/manta/Install/libexec/GetChromDepth'
p159
sS'minPassDiploidGTScore'
p160
S'15'
p161
sS'graphNodeMaxEdgeCount'
p162
S'10'
p163
sS'enableRemoteReadRetrievalForInsertionsInCancerCallingModes'
p164
S'0'
p165
sS'mergeChromDepth'
p166
S'/home/robin/Documents/Project/manta/Install/libexec/mergeChromDepth.py'
p167
sS'isUnstrandedRNA'
p168
I00
sS'catScript'
p169
S'/home/robin/Documents/Project/manta/Install/libexec/cat.py'
p170
sS'runDir'
p171
S'/home/robin/Documents/Project/TFM_code/CNVbenchmarkeR-master/output/manta-datasetall'
p172
sS'hyGenLocalMemMb'
p173
F1536.0
sS'enableRemoteReadRetrievalForInsertionsInGermlineCallingModes'
p174
g7
sS'mantaGraphBin'
p175
S'/home/robin/Documents/Project/manta/Install/libexec/EstimateSVLoci'
p176
sS'regionStrList'
p177
NsS'mergeMemMb'
p178
I4096
sS'isGenerateSupportBam'
p179
I00
sS'minPassDiploidVariantScore'
p180
S'20'
p181
sS'callMemMbOverride'
p182
NsS'userConfigPath'
p183
S'/home/robin/Documents/Project/TFM_code/CNVbenchmarkeR-master/output/manta-datasetall/configManta.py.ini'
p184
sS'minEdgeObservations'
p185
S'2'
p186
sS'minDiploidVariantScore'
p187
S'10'
p188
sS'minCandidateSpanningCount'
p189
g186
sS'mantaStatsBin'
p190
S'/home/robin/Documents/Project/manta/Install/libexec/GetAlignmentStats'
p191
sS'mantaHyGenBin'
p192
S'/home/robin/Documents/Project/manta/Install/libexec/GenerateSVCandidates'
p193
sS'htsfileBin'
p194
S'/home/robin/Documents/Project/manta/Install/libexec/htsfile'
p195
sS'useOverlapPairEvidence'
p196
g165
sS'bgzipBin'
p197
S'/home/robin/Documents/Project/manta/Install/libexec/bgzip'
p198
sS'configCommandLine'
p199
(lp200
S'/home/robin/Documents/Project/manta/Install/bin/configManta.py'
p201
aS'--bam=/home/robin/Documents/Project/Samples/bam/all/17296.bam'
p202
aS'--bam=/home/robin/Documents/Project/Samples/bam/all/17297.bam'
p203
aS'--bam=/home/robin/Documents/Project/Samples/bam/all/17298.bam'
p204
aS'--bam=/home/robin/Documents/Project/Samples/bam/all/17299.bam'
p205
aS'--bam=/home/robin/Documents/Project/Samples/bam/all/17300.bam'
p206
aS'--bam=/home/robin/Documents/Project/Samples/bam/all/17301.bam'
p207
aS'--bam=/home/robin/Documents/Project/Samples/bam/all/17302.bam'
p208
aS'--bam=/home/robin/Documents/Project/Samples/bam/all/17303.bam'
p209
aS'--bam=/home/robin/Documents/Project/Samples/bam/all/17304.bam'
p210
aS'--bam=/home/robin/Documents/Project/Samples/bam/all/17305.bam'
p211
aS'--bam=/home/robin/Documents/Project/Samples/bam/all/17306.bam'
p212
aS'--bam=/home/robin/Documents/Project/Samples/bam/all/17307.bam'
p213
aS'--bam=/home/robin/Documents/Project/Samples/bam/all/17308.bam'
p214
aS'--bam=/home/robin/Documents/Project/Samples/bam/all/17309.bam'
p215
aS'--bam=/home/robin/Documents/Project/Samples/bam/all/17310.bam'
p216
aS'--bam=/home/robin/Documents/Project/Samples/bam/all/17311.bam'
p217
aS'--bam=/home/robin/Documents/Project/Samples/bam/all/17312.bam'
p218
aS'--bam=/home/robin/Documents/Project/Samples/bam/all/17313.bam'
p219
aS'--bam=/home/robin/Documents/Project/Samples/bam/all/17314.bam'
p220
aS'--bam=/home/robin/Documents/Project/Samples/bam/all/17315.bam'
p221
aS'--bam=/home/robin/Documents/Project/Samples/bam/all/17316.bam'
p222
aS'--bam=/home/robin/Documents/Project/Samples/bam/all/17317.bam'
p223
aS'--bam=/home/robin/Documents/Project/Samples/bam/all/17318.bam'
p224
aS'--bam=/home/robin/Documents/Project/Samples/bam/all/17319.bam'
p225
aS'--bam=/home/robin/Documents/Project/Samples/bam/all/17320.bam'
p226
aS'--bam=/home/robin/Documents/Project/Samples/bam/all/17321.bam'
p227
aS'--bam=/home/robin/Documents/Project/Samples/bam/all/17322.bam'
p228
aS'--bam=/home/robin/Documents/Project/Samples/bam/all/17323.bam'
p229
aS'--bam=/home/robin/Documents/Project/Samples/bam/all/17324.bam'
p230
aS'--bam=/home/robin/Documents/Project/Samples/bam/all/17325.bam'
p231
aS'--bam=/home/robin/Documents/Project/Samples/bam/all/17326.bam'
p232
aS'--bam=/home/robin/Documents/Project/Samples/bam/all/17327.bam'
p233
aS'--bam=/home/robin/Documents/Project/Samples/bam/all/17328.bam'
p234
aS'--bam=/home/robin/Documents/Project/Samples/bam/all/17329.bam'
p235
aS'--bam=/home/robin/Documents/Project/Samples/bam/all/17330.bam'
p236
aS'--bam=/home/robin/Documents/Project/Samples/bam/all/17331.bam'
p237
aS'--bam=/home/robin/Documents/Project/Samples/bam/all/17332.bam'
p238
aS'--bam=/home/robin/Documents/Project/Samples/bam/all/17333.bam'
p239
aS'--bam=/home/robin/Documents/Project/Samples/bam/all/17334.bam'
p240
aS'--bam=/home/robin/Documents/Project/Samples/bam/all/17335.bam'
p241
aS'--bam=/home/robin/Documents/Project/Samples/bam/all/17336.bam'
p242
aS'--bam=/home/robin/Documents/Project/Samples/bam/all/17337.bam'
p243
aS'--bam=/home/robin/Documents/Project/Samples/bam/all/17338.bam'
p244
aS'--bam=/home/robin/Documents/Project/Samples/bam/all/17339.bam'
p245
aS'--bam=/home/robin/Documents/Project/Samples/bam/all/17340.bam'
p246
aS'--bam=/home/robin/Documents/Project/Samples/bam/all/17341.bam'
p247
aS'--bam=/home/robin/Documents/Project/Samples/bam/all/17342.bam'
p248
aS'--bam=/home/robin/Documents/Project/Samples/bam/all/17343.bam'
p249
aS'--bam=/home/robin/Documents/Project/Samples/bam/all/17356.bam'
p250
aS'--bam=/home/robin/Documents/Project/Samples/bam/all/17357.bam'
p251
aS'--bam=/home/robin/Documents/Project/Samples/bam/all/17358.bam'
p252
aS'--bam=/home/robin/Documents/Project/Samples/bam/all/17359.bam'
p253
aS'--bam=/home/robin/Documents/Project/Samples/bam/all/17360.bam'
p254
aS'--bam=/home/robin/Documents/Project/Samples/bam/all/17361.bam'
p255
aS'--bam=/home/robin/Documents/Project/Samples/bam/all/17362.bam'
p256
aS'--bam=/home/robin/Documents/Project/Samples/bam/all/17363.bam'
p257
aS'--bam=/home/robin/Documents/Project/Samples/bam/all/17364.bam'
p258
aS'--bam=/home/robin/Documents/Project/Samples/bam/all/17365.bam'
p259
aS'--bam=/home/robin/Documents/Project/Samples/bam/all/17366.bam'
p260
aS'--bam=/home/robin/Documents/Project/Samples/bam/all/17367.bam'
p261
aS'--bam=/home/robin/Documents/Project/Samples/bam/all/17368.bam'
p262
aS'--bam=/home/robin/Documents/Project/Samples/bam/all/17369.bam'
p263
aS'--bam=/home/robin/Documents/Project/Samples/bam/all/17370.bam'
p264
aS'--bam=/home/robin/Documents/Project/Samples/bam/all/17371.bam'
p265
aS'--bam=/home/robin/Documents/Project/Samples/bam/all/17372.bam'
p266
aS'--bam=/home/robin/Documents/Project/Samples/bam/all/17373.bam'
p267
aS'--bam=/home/robin/Documents/Project/Samples/bam/all/17374.bam'
p268
aS'--bam=/home/robin/Documents/Project/Samples/bam/all/17375.bam'
p269
aS'--bam=/home/robin/Documents/Project/Samples/bam/all/17376.bam'
p270
aS'--bam=/home/robin/Documents/Project/Samples/bam/all/17377.bam'
p271
aS'--bam=/home/robin/Documents/Project/Samples/bam/all/17378.bam'
p272
aS'--bam=/home/robin/Documents/Project/Samples/bam/all/17379.bam'
p273
aS'--bam=/home/robin/Documents/Project/Samples/bam/all/17380.bam'
p274
aS'--bam=/home/robin/Documents/Project/Samples/bam/all/17381.bam'
p275
aS'--bam=/home/robin/Documents/Project/Samples/bam/all/17382.bam'
p276
aS'--bam=/home/robin/Documents/Project/Samples/bam/all/17383.bam'
p277
aS'--bam=/home/robin/Documents/Project/Samples/bam/all/17384.bam'
p278
aS'--bam=/home/robin/Documents/Project/Samples/bam/all/17385.bam'
p279
aS'--bam=/home/robin/Documents/Project/Samples/bam/all/17386.bam'
p280
aS'--bam=/home/robin/Documents/Project/Samples/bam/all/17387.bam'
p281
aS'--bam=/home/robin/Documents/Project/Samples/bam/all/17388.bam'
p282
aS'--bam=/home/robin/Documents/Project/Samples/bam/all/17389.bam'
p283
aS'--bam=/home/robin/Documents/Project/Samples/bam/all/17390.bam'
p284
aS'--bam=/home/robin/Documents/Project/Samples/bam/all/17391.bam'
p285
aS'--bam=/home/robin/Documents/Project/Samples/bam/all/17392.bam'
p286
aS'--bam=/home/robin/Documents/Project/Samples/bam/all/17393.bam'
p287
aS'--bam=/home/robin/Documents/Project/Samples/bam/all/17394.bam'
p288
aS'--bam=/home/robin/Documents/Project/Samples/bam/all/17395.bam'
p289
aS'--bam=/home/robin/Documents/Project/Samples/bam/all/17396.bam'
p290
aS'--bam=/home/robin/Documents/Project/Samples/bam/all/17397.bam'
p291
aS'--bam=/home/robin/Documents/Project/Samples/bam/all/17398.bam'
p292
aS'--bam=/home/robin/Documents/Project/Samples/bam/all/17399.bam'
p293
aS'--bam=/home/robin/Documents/Project/Samples/bam/all/17400.bam'
p294
aS'--bam=/home/robin/Documents/Project/Samples/bam/all/17401.bam'
p295
aS'--bam=/home/robin/Documents/Project/Samples/bam/all/17402.bam'
p296
aS'--bam=/home/robin/Documents/Project/Samples/bam/all/17403.bam'
p297
aS'--referenceFasta=/home/robin/Documents/Project/Samples/hg38/hg38.fa'
p298
aS'--config=/home/robin/Documents/Project/TFM_code/CNVbenchmarkeR-master/output/manta-datasetall/configManta.py.ini'
p299
aS'--exome'
p300
aS'--runDir=/home/robin/Documents/Project/TFM_code/CNVbenchmarkeR-master/output/manta-datasetall'
p301
asS'isOutputContig'
p302
I00
ss.