(dp0
S'isShellCmd'
p1
I00
sS'cmd'
p2
(lp3
S'/home/robin/Documents/Project/manta/Install/libexec/EstimateSVLoci'
p4
aS'--output-file'
p5
aS'/home/robin/Documents/Project/TFM_code/CNVbenchmarkeR-master/output/manta-datasetsingle/workspace/svLocusGraph.bin.tmpdir/svLocusGraph.chromId_434_Un_KI270589v1_0000_to_chromId_437_Un_KI270593v1_0000.bin'
p6
aS'--align-stats'
p7
aS'/home/robin/Documents/Project/TFM_code/CNVbenchmarkeR-master/output/manta-datasetsingle/workspace/alignmentStats.xml'
p8
aS'--region'
p9
aS'Un_KI270589v1:1-44474'
p10
ag9
aS'Un_KI270590v1:1-4685'
p11
ag9
aS'Un_KI270591v1:1-5796'
p12
ag9
aS'Un_KI270593v1:1-3041'
p13
aS'--min-candidate-sv-size'
p14
aS'8'
p15
aS'--min-edge-observations'
p16
aS'2'
p17
aS'--ref'
p18
aS'/home/robin/Documents/Project/Samples/hg38/hg38.fa'
p19
aS'--align-file'
p20
aS'/home/robin/Documents/Project/Samples/bam/single/17296.bam'
p21
ag20
aS'/home/robin/Documents/Project/Samples/bam/single/17298.bam'
p22
ag20
aS'/home/robin/Documents/Project/Samples/bam/single/17299.bam'
p23
ag20
aS'/home/robin/Documents/Project/Samples/bam/single/17300.bam'
p24
ag20
aS'/home/robin/Documents/Project/Samples/bam/single/17301.bam'
p25
ag20
aS'/home/robin/Documents/Project/Samples/bam/single/17304.bam'
p26
ag20
aS'/home/robin/Documents/Project/Samples/bam/single/17305.bam'
p27
ag20
aS'/home/robin/Documents/Project/Samples/bam/single/17306.bam'
p28
ag20
aS'/home/robin/Documents/Project/Samples/bam/single/17308.bam'
p29
ag20
aS'/home/robin/Documents/Project/Samples/bam/single/17309.bam'
p30
ag20
aS'/home/robin/Documents/Project/Samples/bam/single/17310.bam'
p31
ag20
aS'/home/robin/Documents/Project/Samples/bam/single/17311.bam'
p32
ag20
aS'/home/robin/Documents/Project/Samples/bam/single/17312.bam'
p33
ag20
aS'/home/robin/Documents/Project/Samples/bam/single/17313.bam'
p34
ag20
aS'/home/robin/Documents/Project/Samples/bam/single/17314.bam'
p35
ag20
aS'/home/robin/Documents/Project/Samples/bam/single/17315.bam'
p36
ag20
aS'/home/robin/Documents/Project/Samples/bam/single/17316.bam'
p37
ag20
aS'/home/robin/Documents/Project/Samples/bam/single/17317.bam'
p38
ag20
aS'/home/robin/Documents/Project/Samples/bam/single/17319.bam'
p39
ag20
aS'/home/robin/Documents/Project/Samples/bam/single/17320.bam'
p40
ag20
aS'/home/robin/Documents/Project/Samples/bam/single/17326.bam'
p41
ag20
aS'/home/robin/Documents/Project/Samples/bam/single/17327.bam'
p42
ag20
aS'/home/robin/Documents/Project/Samples/bam/single/17328.bam'
p43
ag20
aS'/home/robin/Documents/Project/Samples/bam/single/17329.bam'
p44
ag20
aS'/home/robin/Documents/Project/Samples/bam/single/17330.bam'
p45
ag20
aS'/home/robin/Documents/Project/Samples/bam/single/17333.bam'
p46
ag20
aS'/home/robin/Documents/Project/Samples/bam/single/17339.bam'
p47
ag20
aS'/home/robin/Documents/Project/Samples/bam/single/17356.bam'
p48
ag20
aS'/home/robin/Documents/Project/Samples/bam/single/17360.bam'
p49
ag20
aS'/home/robin/Documents/Project/Samples/bam/single/17361.bam'
p50
ag20
aS'/home/robin/Documents/Project/Samples/bam/single/17362.bam'
p51
ag20
aS'/home/robin/Documents/Project/Samples/bam/single/17364.bam'
p52
ag20
aS'/home/robin/Documents/Project/Samples/bam/single/17365.bam'
p53
ag20
aS'/home/robin/Documents/Project/Samples/bam/single/17367.bam'
p54
ag20
aS'/home/robin/Documents/Project/Samples/bam/single/17368.bam'
p55
ag20
aS'/home/robin/Documents/Project/Samples/bam/single/17369.bam'
p56
ag20
aS'/home/robin/Documents/Project/Samples/bam/single/17370.bam'
p57
ag20
aS'/home/robin/Documents/Project/Samples/bam/single/17371.bam'
p58
ag20
aS'/home/robin/Documents/Project/Samples/bam/single/17373.bam'
p59
ag20
aS'/home/robin/Documents/Project/Samples/bam/single/17374.bam'
p60
ag20
aS'/home/robin/Documents/Project/Samples/bam/single/17376.bam'
p61
ag20
aS'/home/robin/Documents/Project/Samples/bam/single/17382.bam'
p62
ag20
aS'/home/robin/Documents/Project/Samples/bam/single/17384.bam'
p63
ag20
aS'/home/robin/Documents/Project/Samples/bam/single/17386.bam'
p64
ag20
aS'/home/robin/Documents/Project/Samples/bam/single/17387.bam'
p65
ag20
aS'/home/robin/Documents/Project/Samples/bam/single/17389.bam'
p66
ag20
aS'/home/robin/Documents/Project/Samples/bam/single/17391.bam'
p67
ag20
aS'/home/robin/Documents/Project/Samples/bam/single/17392.bam'
p68
ag20
aS'/home/robin/Documents/Project/Samples/bam/single/17397.bam'
p69
ag20
aS'/home/robin/Documents/Project/Samples/bam/single/17398.bam'
p70
ag20
aS'/home/robin/Documents/Project/Samples/bam/single/17399.bam'
p71
ag20
aS'/home/robin/Documents/Project/Samples/bam/single/17401.bam'
p72
ag20
aS'/home/robin/Documents/Project/Samples/bam/single/17402.bam'
p73
ag20
aS'/home/robin/Documents/Project/Samples/bam/single/17403.bam'
p74
asS'errFile'
p75
S'/home/robin/Documents/Project/TFM_code/CNVbenchmarkeR-master/output/manta-datasetsingle/workspace/pyflow.data/logs/pyflow_tasks_stderr_log.txt'
p76
sS'outFile'
p77
S'/home/robin/Documents/Project/TFM_code/CNVbenchmarkeR-master/output/manta-datasetsingle/workspace/pyflow.data/logs/pyflow_tasks_stdout_log.txt'
p78
sS'env'
p79
NsS'nCores'
p80
I1
sS'cwd'
p81
S''
p82
s.