(dp0
S'isShellCmd'
p1
I00
sS'cmd'
p2
(lp3
S'/home/robin/Documents/Project/manta/Install/libexec/EstimateSVLoci'
p4
aS'--output-file'
p5
aS'/home/robin/Documents/Project/TFM_code/CNVbenchmarkeR-master/output/manta-datasetclinic/set15/workspace/svLocusGraph.bin.tmpdir/svLocusGraph.chromId_000_1_0017.bin'
p6
aS'--align-stats'
p7
aS'/home/robin/Documents/Project/TFM_code/CNVbenchmarkeR-master/output/manta-datasetclinic/set15/workspace/alignmentStats.xml'
p8
aS'--region'
p9
aS'1:201536155-213391221'
p10
aS'--min-candidate-sv-size'
p11
aS'8'
p12
aS'--min-edge-observations'
p13
aS'2'
p14
aS'--ref'
p15
aS'/home/robin/Documents/Project/Samples/hg38/hg38.fa'
p16
aS'--align-file'
p17
aS'/home/robin/Documents/Project/Samples/bam/all/17392.bam'
p18
ag17
aS'/home/robin/Documents/Project/Samples/bam/all/17393.bam'
p19
ag17
aS'/home/robin/Documents/Project/Samples/bam/all/17394.bam'
p20
ag17
aS'/home/robin/Documents/Project/Samples/bam/all/17395.bam'
p21
ag17
aS'/home/robin/Documents/Project/Samples/bam/all/17396.bam'
p22
ag17
aS'/home/robin/Documents/Project/Samples/bam/all/17397.bam'
p23
asS'errFile'
p24
S'/home/robin/Documents/Project/TFM_code/CNVbenchmarkeR-master/output/manta-datasetclinic/set15/workspace/pyflow.data/logs/pyflow_tasks_stderr_log.txt'
p25
sS'outFile'
p26
S'/home/robin/Documents/Project/TFM_code/CNVbenchmarkeR-master/output/manta-datasetclinic/set15/workspace/pyflow.data/logs/pyflow_tasks_stdout_log.txt'
p27
sS'env'
p28
NsS'nCores'
p29
I1
sS'cwd'
p30
S''
p31
s.