(dp0
S'isShellCmd'
p1
I00
sS'cmd'
p2
(lp3
S'/home/robin/Documents/Project/manta/Install/libexec/EstimateSVLoci'
p4
aS'--output-file'
p5
aS'/home/robin/Documents/Project/TFM_code/CNVbenchmarkeR/output/manta2-datasetall/results17299/workspace/svLocusGraph.bin.tmpdir/svLocusGraph.chromId_450_Un_KI270753v1_0000_to_chromId_452_Un_KI270755v1_0000.bin'
p6
aS'--align-stats'
p7
aS'/home/robin/Documents/Project/TFM_code/CNVbenchmarkeR/output/manta2-datasetall/results17299/workspace/alignmentStats.xml'
p8
aS'--region'
p9
aS'Un_KI270753v1:1-62944'
p10
ag9
aS'Un_KI270754v1:1-40191'
p11
ag9
aS'Un_KI270755v1:1-36723'
p12
aS'--min-candidate-sv-size'
p13
aS'8'
p14
aS'--min-edge-observations'
p15
aS'2'
p16
aS'--ref'
p17
aS'/home/robin/Documents/Project/Samples/hg38/hg38.fa'
p18
aS'--align-file'
p19
aS'/home/robin/Documents/Project/Samples/bam/all/17299.bam'
p20
asS'errFile'
p21
S'/home/robin/Documents/Project/TFM_code/CNVbenchmarkeR/output/manta2-datasetall/results17299/workspace/pyflow.data/logs/pyflow_tasks_stderr_log.txt'
p22
sS'outFile'
p23
S'/home/robin/Documents/Project/TFM_code/CNVbenchmarkeR/output/manta2-datasetall/results17299/workspace/pyflow.data/logs/pyflow_tasks_stdout_log.txt'
p24
sS'env'
p25
NsS'nCores'
p26
I1
sS'cwd'
p27
S''
p28
s.