(dp0
S'isShellCmd'
p1
I01
sS'cmd'
p2
S'"/home/robin/anaconda3/envs/mantaenv/bin/python" "/home/robin/Documents/Project/manta/Install/libexec/vcfCmdlineSwapper.py" "/home/robin/Documents/Project/manta/Install/bin/configManta.py --bam=/home/robin/Documents/Project/Samples/bam/all/17362.bam --bam=/home/robin/Documents/Project/Samples/bam/all/17363.bam --bam=/home/robin/Documents/Project/Samples/bam/all/17364.bam --bam=/home/robin/Documents/Project/Samples/bam/all/17365.bam --bam=/home/robin/Documents/Project/Samples/bam/all/17366.bam --bam=/home/robin/Documents/Project/Samples/bam/all/17367.bam --referenceFasta=/home/robin/Documents/Project/Samples/hg38/hg38.fa --config=/home/robin/Documents/Project/TFM_code/CNVbenchmarkeR-master/output/manta-datasetall/configManta.py.ini --exome --runDir=/home/robin/Documents/Project/TFM_code/CNVbenchmarkeR-master/output/manta-datasetall/set10" < "/home/robin/Documents/Project/TFM_code/CNVbenchmarkeR-master/output/manta-datasetall/set10/workspace/svHyGen/candidateSV.0000.vcf" > "/home/robin/Documents/Project/TFM_code/CNVbenchmarkeR-master/output/manta-datasetall/set10/workspace/svHyGen/candidateSV.0000.vcf.reheader.tmp" && mv "/home/robin/Documents/Project/TFM_code/CNVbenchmarkeR-master/output/manta-datasetall/set10/workspace/svHyGen/candidateSV.0000.vcf.reheader.tmp" "/home/robin/Documents/Project/TFM_code/CNVbenchmarkeR-master/output/manta-datasetall/set10/workspace/svHyGen/candidateSV.0000.vcf"'
p3
sS'errFile'
p4
S'/home/robin/Documents/Project/TFM_code/CNVbenchmarkeR-master/output/manta-datasetall/set10/workspace/pyflow.data/logs/pyflow_tasks_stderr_log.txt'
p5
sS'outFile'
p6
S'/home/robin/Documents/Project/TFM_code/CNVbenchmarkeR-master/output/manta-datasetall/set10/workspace/pyflow.data/logs/pyflow_tasks_stdout_log.txt'
p7
sS'env'
p8
NsS'nCores'
p9
I1
sS'cwd'
p10
S''
p11
s.