(dp0
S'manta'
p1
(dp2
S'mantaMergeStatsBin'
p3
S'/home/robin/Documents/Project/manta/Install/libexec/MergeAlignmentStats'
p4
sS'isExome'
p5
I01
sS'enableEvidenceSignalFilter'
p6
S'1'
p7
sS'existingAlignStatsFile'
p8
NsS'referenceFasta'
p9
S'/home/robin/Documents/Project/Samples/hg38/hg38.fa'
p10
sS'hyGenSGEMemMb'
p11
I4096
sS'minPassSomaticScore'
p12
S'30'
p13
sS'tumorBamList'
p14
NsS'workflowScriptName'
p15
S'runWorkflow.py'
p16
sS'normalBamList'
p17
(lp18
S'/home/robin/Documents/Project/Samples/bam/single/17296.bam'
p19
aS'/home/robin/Documents/Project/Samples/bam/single/17298.bam'
p20
aS'/home/robin/Documents/Project/Samples/bam/single/17299.bam'
p21
aS'/home/robin/Documents/Project/Samples/bam/single/17300.bam'
p22
aS'/home/robin/Documents/Project/Samples/bam/single/17301.bam'
p23
aS'/home/robin/Documents/Project/Samples/bam/single/17304.bam'
p24
aS'/home/robin/Documents/Project/Samples/bam/single/17305.bam'
p25
aS'/home/robin/Documents/Project/Samples/bam/single/17306.bam'
p26
aS'/home/robin/Documents/Project/Samples/bam/single/17308.bam'
p27
aS'/home/robin/Documents/Project/Samples/bam/single/17309.bam'
p28
aS'/home/robin/Documents/Project/Samples/bam/single/17310.bam'
p29
aS'/home/robin/Documents/Project/Samples/bam/single/17311.bam'
p30
aS'/home/robin/Documents/Project/Samples/bam/single/17312.bam'
p31
aS'/home/robin/Documents/Project/Samples/bam/single/17313.bam'
p32
aS'/home/robin/Documents/Project/Samples/bam/single/17314.bam'
p33
aS'/home/robin/Documents/Project/Samples/bam/single/17315.bam'
p34
aS'/home/robin/Documents/Project/Samples/bam/single/17316.bam'
p35
aS'/home/robin/Documents/Project/Samples/bam/single/17317.bam'
p36
aS'/home/robin/Documents/Project/Samples/bam/single/17319.bam'
p37
aS'/home/robin/Documents/Project/Samples/bam/single/17320.bam'
p38
aS'/home/robin/Documents/Project/Samples/bam/single/17326.bam'
p39
aS'/home/robin/Documents/Project/Samples/bam/single/17327.bam'
p40
aS'/home/robin/Documents/Project/Samples/bam/single/17328.bam'
p41
aS'/home/robin/Documents/Project/Samples/bam/single/17329.bam'
p42
aS'/home/robin/Documents/Project/Samples/bam/single/17330.bam'
p43
aS'/home/robin/Documents/Project/Samples/bam/single/17333.bam'
p44
aS'/home/robin/Documents/Project/Samples/bam/single/17339.bam'
p45
aS'/home/robin/Documents/Project/Samples/bam/single/17356.bam'
p46
aS'/home/robin/Documents/Project/Samples/bam/single/17360.bam'
p47
aS'/home/robin/Documents/Project/Samples/bam/single/17361.bam'
p48
aS'/home/robin/Documents/Project/Samples/bam/single/17362.bam'
p49
aS'/home/robin/Documents/Project/Samples/bam/single/17364.bam'
p50
aS'/home/robin/Documents/Project/Samples/bam/single/17365.bam'
p51
aS'/home/robin/Documents/Project/Samples/bam/single/17367.bam'
p52
aS'/home/robin/Documents/Project/Samples/bam/single/17368.bam'
p53
aS'/home/robin/Documents/Project/Samples/bam/single/17369.bam'
p54
aS'/home/robin/Documents/Project/Samples/bam/single/17370.bam'
p55
aS'/home/robin/Documents/Project/Samples/bam/single/17371.bam'
p56
aS'/home/robin/Documents/Project/Samples/bam/single/17373.bam'
p57
aS'/home/robin/Documents/Project/Samples/bam/single/17374.bam'
p58
aS'/home/robin/Documents/Project/Samples/bam/single/17376.bam'
p59
aS'/home/robin/Documents/Project/Samples/bam/single/17382.bam'
p60
aS'/home/robin/Documents/Project/Samples/bam/single/17384.bam'
p61
aS'/home/robin/Documents/Project/Samples/bam/single/17386.bam'
p62
aS'/home/robin/Documents/Project/Samples/bam/single/17387.bam'
p63
aS'/home/robin/Documents/Project/Samples/bam/single/17389.bam'
p64
aS'/home/robin/Documents/Project/Samples/bam/single/17391.bam'
p65
aS'/home/robin/Documents/Project/Samples/bam/single/17392.bam'
p66
aS'/home/robin/Documents/Project/Samples/bam/single/17397.bam'
p67
aS'/home/robin/Documents/Project/Samples/bam/single/17398.bam'
p68
aS'/home/robin/Documents/Project/Samples/bam/single/17399.bam'
p69
aS'/home/robin/Documents/Project/Samples/bam/single/17401.bam'
p70
aS'/home/robin/Documents/Project/Samples/bam/single/17402.bam'
p71
aS'/home/robin/Documents/Project/Samples/bam/single/17403.bam'
p72
asS'estimateMemMb'
p73
F1536.0
sS'mantaSortVcf'
p74
S'/home/robin/Documents/Project/manta/Install/libexec/sortVcf.py'
p75
sS'scanSizeMb'
p76
I12
sS'libexecDir'
p77
S'/home/robin/Documents/Project/manta/Install/libexec'
p78
sS'isRetainTempFiles'
p79
I00
sS'isRNA'
p80
I00
sS'mantaSortEdgeLogs'
p81
S'/home/robin/Documents/Project/manta/Install/libexec/sortEdgeLogs.py'
p82
sS'tabixBin'
p83
S'/home/robin/Documents/Project/manta/Install/libexec/tabix'
p84
sS'rnaMinCandidateVariantSize'
p85
S'1000'
p86
sS'callRegionsBed'
p87
NsS'mantaPloidyFilter'
p88
S'/home/robin/Documents/Project/manta/Install/libexec/ploidyFilter.py'
p89
sS'mantaSortBam'
p90
S'/home/robin/Documents/Project/manta/Install/libexec/sortBam.py'
p91
sS'samtoolsBin'
p92
S'/home/robin/Documents/Project/manta/Install/libexec/samtools'
p93
sS'useExistingChromDepths'
p94
I00
sS'vcfCmdlineSwapper'
p95
S'/home/robin/Documents/Project/manta/Install/libexec/vcfCmdlineSwapper.py'
p96
sS'mantaExtraSmallVcf'
p97
S'/home/robin/Documents/Project/manta/Install/libexec/extractSmallIndelCandidates.py'
p98
sS'mantaMergeBam'
p99
S'/home/robin/Documents/Project/manta/Install/libexec/mergeBam.py'
p100
sS'mantaStatsSummaryBin'
p101
S'/home/robin/Documents/Project/manta/Install/libexec/SummarizeAlignmentStats'
p102
sS'minScoredVariantSize'
p103
S'50'
p104
sS'mantaGraphStatsBin'
p105
S'/home/robin/Documents/Project/manta/Install/libexec/SummarizeSVLoci'
p106
sS'mantaGraphCheckBin'
p107
S'/home/robin/Documents/Project/manta/Install/libexec/CheckSVLoci'
p108
sS'minSomaticScore'
p109
S'10'
p110
sS'minCandidateVariantSize'
p111
S'8'
p112
sS'mantaGraphMergeBin'
p113
S'/home/robin/Documents/Project/manta/Install/libexec/MergeSVLoci'
p114
sS'genomeRegionList'
p115
NsS'getChromDepthBin'
p116
S'/home/robin/Documents/Project/manta/Install/libexec/GetChromDepth'
p117
sS'minPassDiploidGTScore'
p118
S'15'
p119
sS'graphNodeMaxEdgeCount'
p120
S'0'
p121
sS'enableRemoteReadRetrievalForInsertionsInCancerCallingModes'
p122
g121
sS'mergeChromDepth'
p123
S'/home/robin/Documents/Project/manta/Install/libexec/mergeChromDepth.py'
p124
sS'isUnstrandedRNA'
p125
I00
sS'catScript'
p126
S'/home/robin/Documents/Project/manta/Install/libexec/cat.py'
p127
sS'runDir'
p128
S'/home/robin/Documents/Project/TFM_code/CNVbenchmarkeR-master/output/manta-datasetsinglefilter'
p129
sS'hyGenLocalMemMb'
p130
F1536.0
sS'enableRemoteReadRetrievalForInsertionsInGermlineCallingModes'
p131
g7
sS'mantaGraphBin'
p132
S'/home/robin/Documents/Project/manta/Install/libexec/EstimateSVLoci'
p133
sS'regionStrList'
p134
NsS'mergeMemMb'
p135
I4096
sS'isGenerateSupportBam'
p136
I00
sS'minPassDiploidVariantScore'
p137
S'20'
p138
sS'callMemMbOverride'
p139
NsS'userConfigPath'
p140
S'/home/robin/Documents/Project/TFM_code/CNVbenchmarkeR-master/output/manta-datasetsinglefilter/configManta.py.ini'
p141
sS'minEdgeObservations'
p142
g7
sS'minDiploidVariantScore'
p143
S'10'
p144
sS'minCandidateSpanningCount'
p145
g7
sS'mantaStatsBin'
p146
S'/home/robin/Documents/Project/manta/Install/libexec/GetAlignmentStats'
p147
sS'mantaHyGenBin'
p148
S'/home/robin/Documents/Project/manta/Install/libexec/GenerateSVCandidates'
p149
sS'htsfileBin'
p150
S'/home/robin/Documents/Project/manta/Install/libexec/htsfile'
p151
sS'useOverlapPairEvidence'
p152
g121
sS'bgzipBin'
p153
S'/home/robin/Documents/Project/manta/Install/libexec/bgzip'
p154
sS'configCommandLine'
p155
(lp156
S'/home/robin/Documents/Project/manta/Install/bin/configManta.py'
p157
aS'--bam=/home/robin/Documents/Project/Samples/bam/single/17296.bam'
p158
aS'--bam=/home/robin/Documents/Project/Samples/bam/single/17298.bam'
p159
aS'--bam=/home/robin/Documents/Project/Samples/bam/single/17299.bam'
p160
aS'--bam=/home/robin/Documents/Project/Samples/bam/single/17300.bam'
p161
aS'--bam=/home/robin/Documents/Project/Samples/bam/single/17301.bam'
p162
aS'--bam=/home/robin/Documents/Project/Samples/bam/single/17304.bam'
p163
aS'--bam=/home/robin/Documents/Project/Samples/bam/single/17305.bam'
p164
aS'--bam=/home/robin/Documents/Project/Samples/bam/single/17306.bam'
p165
aS'--bam=/home/robin/Documents/Project/Samples/bam/single/17308.bam'
p166
aS'--bam=/home/robin/Documents/Project/Samples/bam/single/17309.bam'
p167
aS'--bam=/home/robin/Documents/Project/Samples/bam/single/17310.bam'
p168
aS'--bam=/home/robin/Documents/Project/Samples/bam/single/17311.bam'
p169
aS'--bam=/home/robin/Documents/Project/Samples/bam/single/17312.bam'
p170
aS'--bam=/home/robin/Documents/Project/Samples/bam/single/17313.bam'
p171
aS'--bam=/home/robin/Documents/Project/Samples/bam/single/17314.bam'
p172
aS'--bam=/home/robin/Documents/Project/Samples/bam/single/17315.bam'
p173
aS'--bam=/home/robin/Documents/Project/Samples/bam/single/17316.bam'
p174
aS'--bam=/home/robin/Documents/Project/Samples/bam/single/17317.bam'
p175
aS'--bam=/home/robin/Documents/Project/Samples/bam/single/17319.bam'
p176
aS'--bam=/home/robin/Documents/Project/Samples/bam/single/17320.bam'
p177
aS'--bam=/home/robin/Documents/Project/Samples/bam/single/17326.bam'
p178
aS'--bam=/home/robin/Documents/Project/Samples/bam/single/17327.bam'
p179
aS'--bam=/home/robin/Documents/Project/Samples/bam/single/17328.bam'
p180
aS'--bam=/home/robin/Documents/Project/Samples/bam/single/17329.bam'
p181
aS'--bam=/home/robin/Documents/Project/Samples/bam/single/17330.bam'
p182
aS'--bam=/home/robin/Documents/Project/Samples/bam/single/17333.bam'
p183
aS'--bam=/home/robin/Documents/Project/Samples/bam/single/17339.bam'
p184
aS'--bam=/home/robin/Documents/Project/Samples/bam/single/17356.bam'
p185
aS'--bam=/home/robin/Documents/Project/Samples/bam/single/17360.bam'
p186
aS'--bam=/home/robin/Documents/Project/Samples/bam/single/17361.bam'
p187
aS'--bam=/home/robin/Documents/Project/Samples/bam/single/17362.bam'
p188
aS'--bam=/home/robin/Documents/Project/Samples/bam/single/17364.bam'
p189
aS'--bam=/home/robin/Documents/Project/Samples/bam/single/17365.bam'
p190
aS'--bam=/home/robin/Documents/Project/Samples/bam/single/17367.bam'
p191
aS'--bam=/home/robin/Documents/Project/Samples/bam/single/17368.bam'
p192
aS'--bam=/home/robin/Documents/Project/Samples/bam/single/17369.bam'
p193
aS'--bam=/home/robin/Documents/Project/Samples/bam/single/17370.bam'
p194
aS'--bam=/home/robin/Documents/Project/Samples/bam/single/17371.bam'
p195
aS'--bam=/home/robin/Documents/Project/Samples/bam/single/17373.bam'
p196
aS'--bam=/home/robin/Documents/Project/Samples/bam/single/17374.bam'
p197
aS'--bam=/home/robin/Documents/Project/Samples/bam/single/17376.bam'
p198
aS'--bam=/home/robin/Documents/Project/Samples/bam/single/17382.bam'
p199
aS'--bam=/home/robin/Documents/Project/Samples/bam/single/17384.bam'
p200
aS'--bam=/home/robin/Documents/Project/Samples/bam/single/17386.bam'
p201
aS'--bam=/home/robin/Documents/Project/Samples/bam/single/17387.bam'
p202
aS'--bam=/home/robin/Documents/Project/Samples/bam/single/17389.bam'
p203
aS'--bam=/home/robin/Documents/Project/Samples/bam/single/17391.bam'
p204
aS'--bam=/home/robin/Documents/Project/Samples/bam/single/17392.bam'
p205
aS'--bam=/home/robin/Documents/Project/Samples/bam/single/17397.bam'
p206
aS'--bam=/home/robin/Documents/Project/Samples/bam/single/17398.bam'
p207
aS'--bam=/home/robin/Documents/Project/Samples/bam/single/17399.bam'
p208
aS'--bam=/home/robin/Documents/Project/Samples/bam/single/17401.bam'
p209
aS'--bam=/home/robin/Documents/Project/Samples/bam/single/17402.bam'
p210
aS'--bam=/home/robin/Documents/Project/Samples/bam/single/17403.bam'
p211
aS'--referenceFasta=/home/robin/Documents/Project/Samples/hg38/hg38.fa'
p212
aS'--config=/home/robin/Documents/Project/TFM_code/CNVbenchmarkeR-master/output/manta-datasetsinglefilter/configManta.py.ini'
p213
aS'--exome'
p214
aS'--runDir=/home/robin/Documents/Project/TFM_code/CNVbenchmarkeR-master/output/manta-datasetsinglefilter'
p215
asS'isOutputContig'
p216
I00
ss.