(dp0
S'isShellCmd'
p1
I00
sS'cmd'
p2
(lp3
S'/home/robin/Documents/Project/manta/Install/libexec/EstimateSVLoci'
p4
aS'--output-file'
p5
aS'/home/robin/Documents/Project/TFM_code/CNVbenchmarkeR/output/manta2-datasetall/results17299/workspace/svLocusGraph.bin.tmpdir/svLocusGraph.chromId_416_Un_KI270519v1_0000_to_chromId_421_Un_KI270530v1_0000.bin'
p6
aS'--align-stats'
p7
aS'/home/robin/Documents/Project/TFM_code/CNVbenchmarkeR/output/manta2-datasetall/results17299/workspace/alignmentStats.xml'
p8
aS'--region'
p9
aS'Un_KI270519v1:1-138126'
p10
ag9
aS'Un_KI270521v1:1-7642'
p11
ag9
aS'Un_KI270522v1:1-5674'
p12
ag9
aS'Un_KI270528v1:1-2983'
p13
ag9
aS'Un_KI270529v1:1-1899'
p14
ag9
aS'Un_KI270530v1:1-2168'
p15
aS'--min-candidate-sv-size'
p16
aS'8'
p17
aS'--min-edge-observations'
p18
aS'2'
p19
aS'--ref'
p20
aS'/home/robin/Documents/Project/Samples/hg38/hg38.fa'
p21
aS'--align-file'
p22
aS'/home/robin/Documents/Project/Samples/bam/all/17299.bam'
p23
asS'errFile'
p24
S'/home/robin/Documents/Project/TFM_code/CNVbenchmarkeR/output/manta2-datasetall/results17299/workspace/pyflow.data/logs/pyflow_tasks_stderr_log.txt'
p25
sS'outFile'
p26
S'/home/robin/Documents/Project/TFM_code/CNVbenchmarkeR/output/manta2-datasetall/results17299/workspace/pyflow.data/logs/pyflow_tasks_stdout_log.txt'
p27
sS'env'
p28
NsS'nCores'
p29
I1
sS'cwd'
p30
S''
p31
s.