(dp0
S'isShellCmd'
p1
I00
sS'cmd'
p2
(lp3
S'/home/robin/Documents/Project/manta/Install/libexec/MergeAlignmentStats'
p4
aS'--output-file'
p5
aS'/home/robin/Documents/Project/TFM_code/CNVbenchmarkeR-master/output/manta-datasetclinic/set2/workspace/alignmentStats.xml'
p6
aS'--align-stats-file'
p7
aS'/home/robin/Documents/Project/TFM_code/CNVbenchmarkeR-master/output/manta-datasetclinic/set2/workspace/alignmentStats.xml.tmpdir/alignmentStats.xml.000.xml'
p8
ag7
aS'/home/robin/Documents/Project/TFM_code/CNVbenchmarkeR-master/output/manta-datasetclinic/set2/workspace/alignmentStats.xml.tmpdir/alignmentStats.xml.001.xml'
p9
ag7
aS'/home/robin/Documents/Project/TFM_code/CNVbenchmarkeR-master/output/manta-datasetclinic/set2/workspace/alignmentStats.xml.tmpdir/alignmentStats.xml.002.xml'
p10
ag7
aS'/home/robin/Documents/Project/TFM_code/CNVbenchmarkeR-master/output/manta-datasetclinic/set2/workspace/alignmentStats.xml.tmpdir/alignmentStats.xml.003.xml'
p11
ag7
aS'/home/robin/Documents/Project/TFM_code/CNVbenchmarkeR-master/output/manta-datasetclinic/set2/workspace/alignmentStats.xml.tmpdir/alignmentStats.xml.004.xml'
p12
ag7
aS'/home/robin/Documents/Project/TFM_code/CNVbenchmarkeR-master/output/manta-datasetclinic/set2/workspace/alignmentStats.xml.tmpdir/alignmentStats.xml.005.xml'
p13
asS'errFile'
p14
S'/home/robin/Documents/Project/TFM_code/CNVbenchmarkeR-master/output/manta-datasetclinic/set2/workspace/pyflow.data/logs/pyflow_tasks_stderr_log.txt'
p15
sS'outFile'
p16
S'/home/robin/Documents/Project/TFM_code/CNVbenchmarkeR-master/output/manta-datasetclinic/set2/workspace/pyflow.data/logs/pyflow_tasks_stdout_log.txt'
p17
sS'env'
p18
NsS'nCores'
p19
I1
sS'cwd'
p20
S''
p21
s.