(dp0
S'isShellCmd'
p1
I00
sS'cmd'
p2
(lp3
S'/home/robin/Documents/Project/manta/Install/libexec/MergeAlignmentStats'
p4
aS'--output-file'
p5
aS'/home/robin/Documents/Project/TFM_code/CNVbenchmarkeR-master/output/manta-dataset1/workspace/alignmentStats.xml'
p6
aS'--align-stats-file'
p7
aS'/home/robin/Documents/Project/TFM_code/CNVbenchmarkeR-master/output/manta-dataset1/workspace/alignmentStats.xml.tmpdir/alignmentStats.xml.000.xml'
p8
ag7
aS'/home/robin/Documents/Project/TFM_code/CNVbenchmarkeR-master/output/manta-dataset1/workspace/alignmentStats.xml.tmpdir/alignmentStats.xml.001.xml'
p9
ag7
aS'/home/robin/Documents/Project/TFM_code/CNVbenchmarkeR-master/output/manta-dataset1/workspace/alignmentStats.xml.tmpdir/alignmentStats.xml.002.xml'
p10
ag7
aS'/home/robin/Documents/Project/TFM_code/CNVbenchmarkeR-master/output/manta-dataset1/workspace/alignmentStats.xml.tmpdir/alignmentStats.xml.003.xml'
p11
ag7
aS'/home/robin/Documents/Project/TFM_code/CNVbenchmarkeR-master/output/manta-dataset1/workspace/alignmentStats.xml.tmpdir/alignmentStats.xml.004.xml'
p12
ag7
aS'/home/robin/Documents/Project/TFM_code/CNVbenchmarkeR-master/output/manta-dataset1/workspace/alignmentStats.xml.tmpdir/alignmentStats.xml.005.xml'
p13
ag7
aS'/home/robin/Documents/Project/TFM_code/CNVbenchmarkeR-master/output/manta-dataset1/workspace/alignmentStats.xml.tmpdir/alignmentStats.xml.006.xml'
p14
ag7
aS'/home/robin/Documents/Project/TFM_code/CNVbenchmarkeR-master/output/manta-dataset1/workspace/alignmentStats.xml.tmpdir/alignmentStats.xml.007.xml'
p15
ag7
aS'/home/robin/Documents/Project/TFM_code/CNVbenchmarkeR-master/output/manta-dataset1/workspace/alignmentStats.xml.tmpdir/alignmentStats.xml.008.xml'
p16
ag7
aS'/home/robin/Documents/Project/TFM_code/CNVbenchmarkeR-master/output/manta-dataset1/workspace/alignmentStats.xml.tmpdir/alignmentStats.xml.009.xml'
p17
asS'errFile'
p18
S'/home/robin/Documents/Project/TFM_code/CNVbenchmarkeR-master/output/manta-dataset1/workspace/pyflow.data/logs/pyflow_tasks_stderr_log.txt'
p19
sS'outFile'
p20
S'/home/robin/Documents/Project/TFM_code/CNVbenchmarkeR-master/output/manta-dataset1/workspace/pyflow.data/logs/pyflow_tasks_stdout_log.txt'
p21
sS'env'
p22
NsS'nCores'
p23
I1
sS'cwd'
p24
S''
p25
s.