(dp0
S'isShellCmd'
p1
I00
sS'cmd'
p2
(lp3
S'/home/robin/Documents/Project/manta/Install/libexec/EstimateSVLoci'
p4
aS'--output-file'
p5
aS'/home/robin/Documents/Project/TFM_code/CNVbenchmarkeR-master/output/manta-datasetsingle/workspace/svLocusGraph.bin.tmpdir/svLocusGraph.chromId_339_Un_KI270304v1_0000_to_chromId_397_Un_KI270429v1_0000.bin'
p6
aS'--align-stats'
p7
aS'/home/robin/Documents/Project/TFM_code/CNVbenchmarkeR-master/output/manta-datasetsingle/workspace/alignmentStats.xml'
p8
aS'--region'
p9
aS'Un_KI270304v1:1-2165'
p10
ag9
aS'Un_KI270305v1:1-1472'
p11
ag9
aS'Un_KI270310v1:1-1201'
p12
ag9
aS'Un_KI270311v1:1-12399'
p13
ag9
aS'Un_KI270312v1:1-998'
p14
ag9
aS'Un_KI270315v1:1-2276'
p15
ag9
aS'Un_KI270316v1:1-1444'
p16
ag9
aS'Un_KI270317v1:1-37690'
p17
ag9
aS'Un_KI270320v1:1-4416'
p18
ag9
aS'Un_KI270322v1:1-21476'
p19
ag9
aS'Un_KI270329v1:1-1040'
p20
ag9
aS'Un_KI270330v1:1-1652'
p21
ag9
aS'Un_KI270333v1:1-2699'
p22
ag9
aS'Un_KI270334v1:1-1368'
p23
ag9
aS'Un_KI270335v1:1-1048'
p24
ag9
aS'Un_KI270336v1:1-1026'
p25
ag9
aS'Un_KI270337v1:1-1121'
p26
ag9
aS'Un_KI270338v1:1-1428'
p27
ag9
aS'Un_KI270340v1:1-1428'
p28
ag9
aS'Un_KI270362v1:1-3530'
p29
ag9
aS'Un_KI270363v1:1-1803'
p30
ag9
aS'Un_KI270364v1:1-2855'
p31
ag9
aS'Un_KI270366v1:1-8320'
p32
ag9
aS'Un_KI270371v1:1-2805'
p33
ag9
aS'Un_KI270372v1:1-1650'
p34
ag9
aS'Un_KI270373v1:1-1451'
p35
ag9
aS'Un_KI270374v1:1-2656'
p36
ag9
aS'Un_KI270375v1:1-2378'
p37
ag9
aS'Un_KI270376v1:1-1136'
p38
ag9
aS'Un_KI270378v1:1-1048'
p39
ag9
aS'Un_KI270379v1:1-1045'
p40
ag9
aS'Un_KI270381v1:1-1930'
p41
ag9
aS'Un_KI270382v1:1-4215'
p42
ag9
aS'Un_KI270383v1:1-1750'
p43
ag9
aS'Un_KI270384v1:1-1658'
p44
ag9
aS'Un_KI270385v1:1-990'
p45
ag9
aS'Un_KI270386v1:1-1788'
p46
ag9
aS'Un_KI270387v1:1-1537'
p47
ag9
aS'Un_KI270388v1:1-1216'
p48
ag9
aS'Un_KI270389v1:1-1298'
p49
ag9
aS'Un_KI270390v1:1-2387'
p50
ag9
aS'Un_KI270391v1:1-1484'
p51
ag9
aS'Un_KI270392v1:1-971'
p52
ag9
aS'Un_KI270393v1:1-1308'
p53
ag9
aS'Un_KI270394v1:1-970'
p54
ag9
aS'Un_KI270395v1:1-1143'
p55
ag9
aS'Un_KI270396v1:1-1880'
p56
ag9
aS'Un_KI270411v1:1-2646'
p57
ag9
aS'Un_KI270412v1:1-1179'
p58
ag9
aS'Un_KI270414v1:1-2489'
p59
ag9
aS'Un_KI270417v1:1-2043'
p60
ag9
aS'Un_KI270418v1:1-2145'
p61
ag9
aS'Un_KI270419v1:1-1029'
p62
ag9
aS'Un_KI270420v1:1-2321'
p63
ag9
aS'Un_KI270422v1:1-1445'
p64
ag9
aS'Un_KI270423v1:1-981'
p65
ag9
aS'Un_KI270424v1:1-2140'
p66
ag9
aS'Un_KI270425v1:1-1884'
p67
ag9
aS'Un_KI270429v1:1-1361'
p68
aS'--min-candidate-sv-size'
p69
aS'8'
p70
aS'--min-edge-observations'
p71
aS'2'
p72
aS'--ref'
p73
aS'/home/robin/Documents/Project/Samples/hg38/hg38.fa'
p74
aS'--align-file'
p75
aS'/home/robin/Documents/Project/Samples/bam/single/17296.bam'
p76
ag75
aS'/home/robin/Documents/Project/Samples/bam/single/17298.bam'
p77
ag75
aS'/home/robin/Documents/Project/Samples/bam/single/17299.bam'
p78
ag75
aS'/home/robin/Documents/Project/Samples/bam/single/17300.bam'
p79
ag75
aS'/home/robin/Documents/Project/Samples/bam/single/17301.bam'
p80
ag75
aS'/home/robin/Documents/Project/Samples/bam/single/17304.bam'
p81
ag75
aS'/home/robin/Documents/Project/Samples/bam/single/17305.bam'
p82
ag75
aS'/home/robin/Documents/Project/Samples/bam/single/17306.bam'
p83
ag75
aS'/home/robin/Documents/Project/Samples/bam/single/17308.bam'
p84
ag75
aS'/home/robin/Documents/Project/Samples/bam/single/17309.bam'
p85
ag75
aS'/home/robin/Documents/Project/Samples/bam/single/17310.bam'
p86
ag75
aS'/home/robin/Documents/Project/Samples/bam/single/17311.bam'
p87
ag75
aS'/home/robin/Documents/Project/Samples/bam/single/17312.bam'
p88
ag75
aS'/home/robin/Documents/Project/Samples/bam/single/17313.bam'
p89
ag75
aS'/home/robin/Documents/Project/Samples/bam/single/17314.bam'
p90
ag75
aS'/home/robin/Documents/Project/Samples/bam/single/17315.bam'
p91
ag75
aS'/home/robin/Documents/Project/Samples/bam/single/17316.bam'
p92
ag75
aS'/home/robin/Documents/Project/Samples/bam/single/17317.bam'
p93
ag75
aS'/home/robin/Documents/Project/Samples/bam/single/17319.bam'
p94
ag75
aS'/home/robin/Documents/Project/Samples/bam/single/17320.bam'
p95
ag75
aS'/home/robin/Documents/Project/Samples/bam/single/17326.bam'
p96
ag75
aS'/home/robin/Documents/Project/Samples/bam/single/17327.bam'
p97
ag75
aS'/home/robin/Documents/Project/Samples/bam/single/17328.bam'
p98
ag75
aS'/home/robin/Documents/Project/Samples/bam/single/17329.bam'
p99
ag75
aS'/home/robin/Documents/Project/Samples/bam/single/17330.bam'
p100
ag75
aS'/home/robin/Documents/Project/Samples/bam/single/17333.bam'
p101
ag75
aS'/home/robin/Documents/Project/Samples/bam/single/17339.bam'
p102
ag75
aS'/home/robin/Documents/Project/Samples/bam/single/17356.bam'
p103
ag75
aS'/home/robin/Documents/Project/Samples/bam/single/17360.bam'
p104
ag75
aS'/home/robin/Documents/Project/Samples/bam/single/17361.bam'
p105
ag75
aS'/home/robin/Documents/Project/Samples/bam/single/17362.bam'
p106
ag75
aS'/home/robin/Documents/Project/Samples/bam/single/17364.bam'
p107
ag75
aS'/home/robin/Documents/Project/Samples/bam/single/17365.bam'
p108
ag75
aS'/home/robin/Documents/Project/Samples/bam/single/17367.bam'
p109
ag75
aS'/home/robin/Documents/Project/Samples/bam/single/17368.bam'
p110
ag75
aS'/home/robin/Documents/Project/Samples/bam/single/17369.bam'
p111
ag75
aS'/home/robin/Documents/Project/Samples/bam/single/17370.bam'
p112
ag75
aS'/home/robin/Documents/Project/Samples/bam/single/17371.bam'
p113
ag75
aS'/home/robin/Documents/Project/Samples/bam/single/17373.bam'
p114
ag75
aS'/home/robin/Documents/Project/Samples/bam/single/17374.bam'
p115
ag75
aS'/home/robin/Documents/Project/Samples/bam/single/17376.bam'
p116
ag75
aS'/home/robin/Documents/Project/Samples/bam/single/17382.bam'
p117
ag75
aS'/home/robin/Documents/Project/Samples/bam/single/17384.bam'
p118
ag75
aS'/home/robin/Documents/Project/Samples/bam/single/17386.bam'
p119
ag75
aS'/home/robin/Documents/Project/Samples/bam/single/17387.bam'
p120
ag75
aS'/home/robin/Documents/Project/Samples/bam/single/17389.bam'
p121
ag75
aS'/home/robin/Documents/Project/Samples/bam/single/17391.bam'
p122
ag75
aS'/home/robin/Documents/Project/Samples/bam/single/17392.bam'
p123
ag75
aS'/home/robin/Documents/Project/Samples/bam/single/17397.bam'
p124
ag75
aS'/home/robin/Documents/Project/Samples/bam/single/17398.bam'
p125
ag75
aS'/home/robin/Documents/Project/Samples/bam/single/17399.bam'
p126
ag75
aS'/home/robin/Documents/Project/Samples/bam/single/17401.bam'
p127
ag75
aS'/home/robin/Documents/Project/Samples/bam/single/17402.bam'
p128
ag75
aS'/home/robin/Documents/Project/Samples/bam/single/17403.bam'
p129
asS'errFile'
p130
S'/home/robin/Documents/Project/TFM_code/CNVbenchmarkeR-master/output/manta-datasetsingle/workspace/pyflow.data/logs/pyflow_tasks_stderr_log.txt'
p131
sS'outFile'
p132
S'/home/robin/Documents/Project/TFM_code/CNVbenchmarkeR-master/output/manta-datasetsingle/workspace/pyflow.data/logs/pyflow_tasks_stdout_log.txt'
p133
sS'env'
p134
NsS'nCores'
p135
I1
sS'cwd'
p136
S''
p137
s.