(dp0
S'isShellCmd'
p1
I00
sS'cmd'
p2
(lp3
S'/home/robin/Documents/Project/manta/Install/libexec/EstimateSVLoci'
p4
aS'--output-file'
p5
aS'/home/robin/Documents/Project/TFM_code/CNVbenchmarkeR-master/output/manta-dataset1/workspace/svLocusGraph.bin.tmpdir/svLocusGraph.chromId_450_Un_KI270753v1_0000_to_chromId_452_Un_KI270755v1_0000.bin'
p6
aS'--align-stats'
p7
aS'/home/robin/Documents/Project/TFM_code/CNVbenchmarkeR-master/output/manta-dataset1/workspace/alignmentStats.xml'
p8
aS'--region'
p9
aS'Un_KI270753v1:1-62944'
p10
ag9
aS'Un_KI270754v1:1-40191'
p11
ag9
aS'Un_KI270755v1:1-36723'
p12
aS'--min-candidate-sv-size'
p13
aS'8'
p14
aS'--min-edge-observations'
p15
aS'1'
p16
aS'--ref'
p17
aS'/home/robin/Documents/Project/Samples/hg38/hg38.fa'
p18
aS'--align-file'
p19
aS'/home/robin/Documents/Project/Samples/example/bam_ex/17296.bam'
p20
ag19
aS'/home/robin/Documents/Project/Samples/example/bam_ex/17297.bam'
p21
ag19
aS'/home/robin/Documents/Project/Samples/example/bam_ex/17298.bam'
p22
ag19
aS'/home/robin/Documents/Project/Samples/example/bam_ex/17299.bam'
p23
ag19
aS'/home/robin/Documents/Project/Samples/example/bam_ex/17300.bam'
p24
ag19
aS'/home/robin/Documents/Project/Samples/example/bam_ex/17301.bam'
p25
ag19
aS'/home/robin/Documents/Project/Samples/example/bam_ex/17302.bam'
p26
ag19
aS'/home/robin/Documents/Project/Samples/example/bam_ex/17303.bam'
p27
ag19
aS'/home/robin/Documents/Project/Samples/example/bam_ex/17304.bam'
p28
ag19
aS'/home/robin/Documents/Project/Samples/example/bam_ex/17305.bam'
p29
asS'errFile'
p30
S'/home/robin/Documents/Project/TFM_code/CNVbenchmarkeR-master/output/manta-dataset1/workspace/pyflow.data/logs/pyflow_tasks_stderr_log.txt'
p31
sS'outFile'
p32
S'/home/robin/Documents/Project/TFM_code/CNVbenchmarkeR-master/output/manta-dataset1/workspace/pyflow.data/logs/pyflow_tasks_stdout_log.txt'
p33
sS'env'
p34
NsS'nCores'
p35
I1
sS'cwd'
p36
S''
p37
s.