(dp0
S'isShellCmd'
p1
I00
sS'cmd'
p2
(lp3
S'/home/robin/Documents/Project/manta/Install/libexec/CheckSVLoci'
p4
aS'--graph-file'
p5
aS'/home/robin/Documents/Project/TFM_code/CNVbenchmarkeR-master/output/manta-datasetall/set14/workspace/svLocusGraph.bin'
p6
asS'errFile'
p7
S'/home/robin/Documents/Project/TFM_code/CNVbenchmarkeR-master/output/manta-datasetall/set14/workspace/pyflow.data/logs/pyflow_tasks_stderr_log.txt'
p8
sS'outFile'
p9
S'/home/robin/Documents/Project/TFM_code/CNVbenchmarkeR-master/output/manta-datasetall/set14/workspace/pyflow.data/logs/pyflow_tasks_stdout_log.txt'
p10
sS'env'
p11
NsS'nCores'
p12
I1
sS'cwd'
p13
S''
p14
s.