(dp0
S'isShellCmd'
p1
I00
sS'cmd'
p2
(lp3
S'/home/robin/Documents/Project/manta/Install/libexec/EstimateSVLoci'
p4
aS'--output-file'
p5
aS'/home/robin/Documents/Project/TFM_code/CNVbenchmarkeR-master/output/manta-datasetall/set9/workspace/svLocusGraph.bin.tmpdir/svLocusGraph.chromId_401_Un_KI270448v1_0000_to_chromId_415_Un_KI270518v1_0000.bin'
p6
aS'--align-stats'
p7
aS'/home/robin/Documents/Project/TFM_code/CNVbenchmarkeR-master/output/manta-datasetall/set9/workspace/alignmentStats.xml'
p8
aS'--region'
p9
aS'Un_KI270448v1:1-7992'
p10
ag9
aS'Un_KI270465v1:1-1774'
p11
ag9
aS'Un_KI270466v1:1-1233'
p12
ag9
aS'Un_KI270467v1:1-3920'
p13
ag9
aS'Un_KI270468v1:1-4055'
p14
ag9
aS'Un_KI270507v1:1-5353'
p15
ag9
aS'Un_KI270508v1:1-1951'
p16
ag9
aS'Un_KI270509v1:1-2318'
p17
ag9
aS'Un_KI270510v1:1-2415'
p18
ag9
aS'Un_KI270511v1:1-8127'
p19
ag9
aS'Un_KI270512v1:1-22689'
p20
ag9
aS'Un_KI270515v1:1-6361'
p21
ag9
aS'Un_KI270516v1:1-1300'
p22
ag9
aS'Un_KI270517v1:1-3253'
p23
ag9
aS'Un_KI270518v1:1-2186'
p24
aS'--min-candidate-sv-size'
p25
aS'8'
p26
aS'--min-edge-observations'
p27
aS'2'
p28
aS'--ref'
p29
aS'/home/robin/Documents/Project/Samples/hg38/hg38.fa'
p30
aS'--align-file'
p31
aS'/home/robin/Documents/Project/Samples/bam/all/17356.bam'
p32
ag31
aS'/home/robin/Documents/Project/Samples/bam/all/17357.bam'
p33
ag31
aS'/home/robin/Documents/Project/Samples/bam/all/17358.bam'
p34
ag31
aS'/home/robin/Documents/Project/Samples/bam/all/17359.bam'
p35
ag31
aS'/home/robin/Documents/Project/Samples/bam/all/17360.bam'
p36
ag31
aS'/home/robin/Documents/Project/Samples/bam/all/17361.bam'
p37
asS'errFile'
p38
S'/home/robin/Documents/Project/TFM_code/CNVbenchmarkeR-master/output/manta-datasetall/set9/workspace/pyflow.data/logs/pyflow_tasks_stderr_log.txt'
p39
sS'outFile'
p40
S'/home/robin/Documents/Project/TFM_code/CNVbenchmarkeR-master/output/manta-datasetall/set9/workspace/pyflow.data/logs/pyflow_tasks_stdout_log.txt'
p41
sS'env'
p42
NsS'nCores'
p43
I1
sS'cwd'
p44
S''
p45
s.