(dp0
S'manta'
p1
(dp2
S'mantaMergeStatsBin'
p3
S'/home/robin/Documents/Project/manta/Install/libexec/MergeAlignmentStats'
p4
sS'isExome'
p5
I01
sS'enableEvidenceSignalFilter'
p6
S'1'
p7
sS'existingAlignStatsFile'
p8
NsS'referenceFasta'
p9
S'/home/robin/Documents/Project/Samples/hg38/hg38.fa'
p10
sS'hyGenSGEMemMb'
p11
I4096
sS'minPassSomaticScore'
p12
S'30'
p13
sS'tumorBamList'
p14
NsS'workflowScriptName'
p15
S'runWorkflow.py'
p16
sS'normalBamList'
p17
(lp18
S'/home/robin/Documents/Project/Samples/bam/all/17380.bam'
p19
aS'/home/robin/Documents/Project/Samples/bam/all/17381.bam'
p20
aS'/home/robin/Documents/Project/Samples/bam/all/17382.bam'
p21
aS'/home/robin/Documents/Project/Samples/bam/all/17383.bam'
p22
aS'/home/robin/Documents/Project/Samples/bam/all/17384.bam'
p23
aS'/home/robin/Documents/Project/Samples/bam/all/17385.bam'
p24
asS'estimateMemMb'
p25
F1536.0
sS'mantaSortVcf'
p26
S'/home/robin/Documents/Project/manta/Install/libexec/sortVcf.py'
p27
sS'scanSizeMb'
p28
I12
sS'libexecDir'
p29
S'/home/robin/Documents/Project/manta/Install/libexec'
p30
sS'isRetainTempFiles'
p31
I00
sS'isRNA'
p32
I00
sS'mantaSortEdgeLogs'
p33
S'/home/robin/Documents/Project/manta/Install/libexec/sortEdgeLogs.py'
p34
sS'tabixBin'
p35
S'/home/robin/Documents/Project/manta/Install/libexec/tabix'
p36
sS'rnaMinCandidateVariantSize'
p37
S'1000'
p38
sS'callRegionsBed'
p39
NsS'mantaPloidyFilter'
p40
S'/home/robin/Documents/Project/manta/Install/libexec/ploidyFilter.py'
p41
sS'mantaSortBam'
p42
S'/home/robin/Documents/Project/manta/Install/libexec/sortBam.py'
p43
sS'samtoolsBin'
p44
S'/home/robin/Documents/Project/manta/Install/libexec/samtools'
p45
sS'useExistingChromDepths'
p46
I00
sS'vcfCmdlineSwapper'
p47
S'/home/robin/Documents/Project/manta/Install/libexec/vcfCmdlineSwapper.py'
p48
sS'mantaExtraSmallVcf'
p49
S'/home/robin/Documents/Project/manta/Install/libexec/extractSmallIndelCandidates.py'
p50
sS'mantaMergeBam'
p51
S'/home/robin/Documents/Project/manta/Install/libexec/mergeBam.py'
p52
sS'mantaStatsSummaryBin'
p53
S'/home/robin/Documents/Project/manta/Install/libexec/SummarizeAlignmentStats'
p54
sS'minScoredVariantSize'
p55
S'30'
p56
sS'mantaGraphStatsBin'
p57
S'/home/robin/Documents/Project/manta/Install/libexec/SummarizeSVLoci'
p58
sS'mantaGraphCheckBin'
p59
S'/home/robin/Documents/Project/manta/Install/libexec/CheckSVLoci'
p60
sS'minSomaticScore'
p61
S'10'
p62
sS'minCandidateVariantSize'
p63
S'8'
p64
sS'mantaGraphMergeBin'
p65
S'/home/robin/Documents/Project/manta/Install/libexec/MergeSVLoci'
p66
sS'genomeRegionList'
p67
NsS'getChromDepthBin'
p68
S'/home/robin/Documents/Project/manta/Install/libexec/GetChromDepth'
p69
sS'minPassDiploidGTScore'
p70
S'15'
p71
sS'graphNodeMaxEdgeCount'
p72
S'10'
p73
sS'enableRemoteReadRetrievalForInsertionsInCancerCallingModes'
p74
S'0'
p75
sS'mergeChromDepth'
p76
S'/home/robin/Documents/Project/manta/Install/libexec/mergeChromDepth.py'
p77
sS'isUnstrandedRNA'
p78
I00
sS'catScript'
p79
S'/home/robin/Documents/Project/manta/Install/libexec/cat.py'
p80
sS'runDir'
p81
S'/home/robin/Documents/Project/TFM_code/CNVbenchmarkeR-master/output/manta-datasetall/set13'
p82
sS'hyGenLocalMemMb'
p83
F1536.0
sS'enableRemoteReadRetrievalForInsertionsInGermlineCallingModes'
p84
g7
sS'mantaGraphBin'
p85
S'/home/robin/Documents/Project/manta/Install/libexec/EstimateSVLoci'
p86
sS'regionStrList'
p87
NsS'mergeMemMb'
p88
I4096
sS'isGenerateSupportBam'
p89
I00
sS'minPassDiploidVariantScore'
p90
S'20'
p91
sS'callMemMbOverride'
p92
NsS'userConfigPath'
p93
S'/home/robin/Documents/Project/TFM_code/CNVbenchmarkeR-master/output/manta-datasetall/configManta.py.ini'
p94
sS'minEdgeObservations'
p95
S'2'
p96
sS'minDiploidVariantScore'
p97
S'10'
p98
sS'minCandidateSpanningCount'
p99
g96
sS'mantaStatsBin'
p100
S'/home/robin/Documents/Project/manta/Install/libexec/GetAlignmentStats'
p101
sS'mantaHyGenBin'
p102
S'/home/robin/Documents/Project/manta/Install/libexec/GenerateSVCandidates'
p103
sS'htsfileBin'
p104
S'/home/robin/Documents/Project/manta/Install/libexec/htsfile'
p105
sS'useOverlapPairEvidence'
p106
g75
sS'bgzipBin'
p107
S'/home/robin/Documents/Project/manta/Install/libexec/bgzip'
p108
sS'configCommandLine'
p109
(lp110
S'/home/robin/Documents/Project/manta/Install/bin/configManta.py'
p111
aS'--bam=/home/robin/Documents/Project/Samples/bam/all/17380.bam'
p112
aS'--bam=/home/robin/Documents/Project/Samples/bam/all/17381.bam'
p113
aS'--bam=/home/robin/Documents/Project/Samples/bam/all/17382.bam'
p114
aS'--bam=/home/robin/Documents/Project/Samples/bam/all/17383.bam'
p115
aS'--bam=/home/robin/Documents/Project/Samples/bam/all/17384.bam'
p116
aS'--bam=/home/robin/Documents/Project/Samples/bam/all/17385.bam'
p117
aS'--referenceFasta=/home/robin/Documents/Project/Samples/hg38/hg38.fa'
p118
aS'--config=/home/robin/Documents/Project/TFM_code/CNVbenchmarkeR-master/output/manta-datasetall/configManta.py.ini'
p119
aS'--exome'
p120
aS'--runDir=/home/robin/Documents/Project/TFM_code/CNVbenchmarkeR-master/output/manta-datasetall/set13'
p121
asS'isOutputContig'
p122
I00
ss.