(dp0
S'isShellCmd'
p1
I00
sS'cmd'
p2
(lp3
S'/home/robin/Documents/Project/manta/Install/libexec/EstimateSVLoci'
p4
aS'--output-file'
p5
aS'/home/robin/Documents/Project/TFM_code/CNVbenchmarkeR-master/output/manta-datasetall/workspace/svLocusGraph.bin.tmpdir/svLocusGraph.chromId_236_18_GL383568v1_alt_0000.bin'
p6
aS'--align-stats'
p7
aS'/home/robin/Documents/Project/TFM_code/CNVbenchmarkeR-master/output/manta-datasetall/workspace/alignmentStats.xml'
p8
aS'--region'
p9
aS'18_GL383568v1_alt:1-104552'
p10
aS'--min-candidate-sv-size'
p11
aS'8'
p12
aS'--min-edge-observations'
p13
aS'2'
p14
aS'--ref'
p15
aS'/home/robin/Documents/Project/Samples/hg38/hg38.fa'
p16
aS'--align-file'
p17
aS'/home/robin/Documents/Project/Samples/bam/all/17296.bam'
p18
ag17
aS'/home/robin/Documents/Project/Samples/bam/all/17297.bam'
p19
ag17
aS'/home/robin/Documents/Project/Samples/bam/all/17298.bam'
p20
ag17
aS'/home/robin/Documents/Project/Samples/bam/all/17299.bam'
p21
ag17
aS'/home/robin/Documents/Project/Samples/bam/all/17300.bam'
p22
ag17
aS'/home/robin/Documents/Project/Samples/bam/all/17301.bam'
p23
ag17
aS'/home/robin/Documents/Project/Samples/bam/all/17302.bam'
p24
ag17
aS'/home/robin/Documents/Project/Samples/bam/all/17303.bam'
p25
ag17
aS'/home/robin/Documents/Project/Samples/bam/all/17304.bam'
p26
ag17
aS'/home/robin/Documents/Project/Samples/bam/all/17305.bam'
p27
ag17
aS'/home/robin/Documents/Project/Samples/bam/all/17306.bam'
p28
ag17
aS'/home/robin/Documents/Project/Samples/bam/all/17307.bam'
p29
ag17
aS'/home/robin/Documents/Project/Samples/bam/all/17308.bam'
p30
ag17
aS'/home/robin/Documents/Project/Samples/bam/all/17309.bam'
p31
ag17
aS'/home/robin/Documents/Project/Samples/bam/all/17310.bam'
p32
ag17
aS'/home/robin/Documents/Project/Samples/bam/all/17311.bam'
p33
ag17
aS'/home/robin/Documents/Project/Samples/bam/all/17312.bam'
p34
ag17
aS'/home/robin/Documents/Project/Samples/bam/all/17313.bam'
p35
ag17
aS'/home/robin/Documents/Project/Samples/bam/all/17314.bam'
p36
ag17
aS'/home/robin/Documents/Project/Samples/bam/all/17315.bam'
p37
ag17
aS'/home/robin/Documents/Project/Samples/bam/all/17316.bam'
p38
ag17
aS'/home/robin/Documents/Project/Samples/bam/all/17317.bam'
p39
ag17
aS'/home/robin/Documents/Project/Samples/bam/all/17318.bam'
p40
ag17
aS'/home/robin/Documents/Project/Samples/bam/all/17319.bam'
p41
ag17
aS'/home/robin/Documents/Project/Samples/bam/all/17320.bam'
p42
ag17
aS'/home/robin/Documents/Project/Samples/bam/all/17321.bam'
p43
ag17
aS'/home/robin/Documents/Project/Samples/bam/all/17322.bam'
p44
ag17
aS'/home/robin/Documents/Project/Samples/bam/all/17323.bam'
p45
ag17
aS'/home/robin/Documents/Project/Samples/bam/all/17324.bam'
p46
ag17
aS'/home/robin/Documents/Project/Samples/bam/all/17325.bam'
p47
ag17
aS'/home/robin/Documents/Project/Samples/bam/all/17326.bam'
p48
ag17
aS'/home/robin/Documents/Project/Samples/bam/all/17327.bam'
p49
ag17
aS'/home/robin/Documents/Project/Samples/bam/all/17328.bam'
p50
ag17
aS'/home/robin/Documents/Project/Samples/bam/all/17329.bam'
p51
ag17
aS'/home/robin/Documents/Project/Samples/bam/all/17330.bam'
p52
ag17
aS'/home/robin/Documents/Project/Samples/bam/all/17331.bam'
p53
ag17
aS'/home/robin/Documents/Project/Samples/bam/all/17332.bam'
p54
ag17
aS'/home/robin/Documents/Project/Samples/bam/all/17333.bam'
p55
ag17
aS'/home/robin/Documents/Project/Samples/bam/all/17334.bam'
p56
ag17
aS'/home/robin/Documents/Project/Samples/bam/all/17335.bam'
p57
ag17
aS'/home/robin/Documents/Project/Samples/bam/all/17336.bam'
p58
ag17
aS'/home/robin/Documents/Project/Samples/bam/all/17337.bam'
p59
ag17
aS'/home/robin/Documents/Project/Samples/bam/all/17338.bam'
p60
ag17
aS'/home/robin/Documents/Project/Samples/bam/all/17339.bam'
p61
ag17
aS'/home/robin/Documents/Project/Samples/bam/all/17340.bam'
p62
ag17
aS'/home/robin/Documents/Project/Samples/bam/all/17341.bam'
p63
ag17
aS'/home/robin/Documents/Project/Samples/bam/all/17342.bam'
p64
ag17
aS'/home/robin/Documents/Project/Samples/bam/all/17343.bam'
p65
ag17
aS'/home/robin/Documents/Project/Samples/bam/all/17356.bam'
p66
ag17
aS'/home/robin/Documents/Project/Samples/bam/all/17357.bam'
p67
ag17
aS'/home/robin/Documents/Project/Samples/bam/all/17358.bam'
p68
ag17
aS'/home/robin/Documents/Project/Samples/bam/all/17359.bam'
p69
ag17
aS'/home/robin/Documents/Project/Samples/bam/all/17360.bam'
p70
ag17
aS'/home/robin/Documents/Project/Samples/bam/all/17361.bam'
p71
ag17
aS'/home/robin/Documents/Project/Samples/bam/all/17362.bam'
p72
ag17
aS'/home/robin/Documents/Project/Samples/bam/all/17363.bam'
p73
ag17
aS'/home/robin/Documents/Project/Samples/bam/all/17364.bam'
p74
ag17
aS'/home/robin/Documents/Project/Samples/bam/all/17365.bam'
p75
ag17
aS'/home/robin/Documents/Project/Samples/bam/all/17366.bam'
p76
ag17
aS'/home/robin/Documents/Project/Samples/bam/all/17367.bam'
p77
ag17
aS'/home/robin/Documents/Project/Samples/bam/all/17368.bam'
p78
ag17
aS'/home/robin/Documents/Project/Samples/bam/all/17369.bam'
p79
ag17
aS'/home/robin/Documents/Project/Samples/bam/all/17370.bam'
p80
ag17
aS'/home/robin/Documents/Project/Samples/bam/all/17371.bam'
p81
ag17
aS'/home/robin/Documents/Project/Samples/bam/all/17372.bam'
p82
ag17
aS'/home/robin/Documents/Project/Samples/bam/all/17373.bam'
p83
ag17
aS'/home/robin/Documents/Project/Samples/bam/all/17374.bam'
p84
ag17
aS'/home/robin/Documents/Project/Samples/bam/all/17375.bam'
p85
ag17
aS'/home/robin/Documents/Project/Samples/bam/all/17376.bam'
p86
ag17
aS'/home/robin/Documents/Project/Samples/bam/all/17377.bam'
p87
ag17
aS'/home/robin/Documents/Project/Samples/bam/all/17378.bam'
p88
ag17
aS'/home/robin/Documents/Project/Samples/bam/all/17379.bam'
p89
ag17
aS'/home/robin/Documents/Project/Samples/bam/all/17380.bam'
p90
ag17
aS'/home/robin/Documents/Project/Samples/bam/all/17381.bam'
p91
ag17
aS'/home/robin/Documents/Project/Samples/bam/all/17382.bam'
p92
ag17
aS'/home/robin/Documents/Project/Samples/bam/all/17383.bam'
p93
ag17
aS'/home/robin/Documents/Project/Samples/bam/all/17384.bam'
p94
ag17
aS'/home/robin/Documents/Project/Samples/bam/all/17385.bam'
p95
ag17
aS'/home/robin/Documents/Project/Samples/bam/all/17386.bam'
p96
ag17
aS'/home/robin/Documents/Project/Samples/bam/all/17387.bam'
p97
ag17
aS'/home/robin/Documents/Project/Samples/bam/all/17388.bam'
p98
ag17
aS'/home/robin/Documents/Project/Samples/bam/all/17389.bam'
p99
ag17
aS'/home/robin/Documents/Project/Samples/bam/all/17390.bam'
p100
ag17
aS'/home/robin/Documents/Project/Samples/bam/all/17391.bam'
p101
ag17
aS'/home/robin/Documents/Project/Samples/bam/all/17392.bam'
p102
ag17
aS'/home/robin/Documents/Project/Samples/bam/all/17393.bam'
p103
ag17
aS'/home/robin/Documents/Project/Samples/bam/all/17394.bam'
p104
ag17
aS'/home/robin/Documents/Project/Samples/bam/all/17395.bam'
p105
ag17
aS'/home/robin/Documents/Project/Samples/bam/all/17396.bam'
p106
ag17
aS'/home/robin/Documents/Project/Samples/bam/all/17397.bam'
p107
ag17
aS'/home/robin/Documents/Project/Samples/bam/all/17398.bam'
p108
ag17
aS'/home/robin/Documents/Project/Samples/bam/all/17399.bam'
p109
ag17
aS'/home/robin/Documents/Project/Samples/bam/all/17400.bam'
p110
ag17
aS'/home/robin/Documents/Project/Samples/bam/all/17401.bam'
p111
ag17
aS'/home/robin/Documents/Project/Samples/bam/all/17402.bam'
p112
ag17
aS'/home/robin/Documents/Project/Samples/bam/all/17403.bam'
p113
asS'errFile'
p114
S'/home/robin/Documents/Project/TFM_code/CNVbenchmarkeR-master/output/manta-datasetall/workspace/pyflow.data/logs/pyflow_tasks_stderr_log.txt'
p115
sS'outFile'
p116
S'/home/robin/Documents/Project/TFM_code/CNVbenchmarkeR-master/output/manta-datasetall/workspace/pyflow.data/logs/pyflow_tasks_stdout_log.txt'
p117
sS'env'
p118
NsS'nCores'
p119
I1
sS'cwd'
p120
S''
p121
s.