(dp0
S'isShellCmd'
p1
I00
sS'cmd'
p2
(lp3
S'/home/robin/Documents/Project/manta/Install/libexec/EstimateSVLoci'
p4
aS'--output-file'
p5
aS'/home/robin/Documents/Project/TFM_code/CNVbenchmarkeR-master/output/manta-datasetsingle/workspace/svLocusGraph.bin.tmpdir/svLocusGraph.chromId_422_Un_KI270538v1_0000_to_chromId_433_Un_KI270588v1_0000.bin'
p6
aS'--align-stats'
p7
aS'/home/robin/Documents/Project/TFM_code/CNVbenchmarkeR-master/output/manta-datasetsingle/workspace/alignmentStats.xml'
p8
aS'--region'
p9
aS'Un_KI270538v1:1-91309'
p10
ag9
aS'Un_KI270539v1:1-993'
p11
ag9
aS'Un_KI270544v1:1-1202'
p12
ag9
aS'Un_KI270548v1:1-1599'
p13
ag9
aS'Un_KI270579v1:1-31033'
p14
ag9
aS'Un_KI270580v1:1-1553'
p15
ag9
aS'Un_KI270581v1:1-7046'
p16
ag9
aS'Un_KI270582v1:1-6504'
p17
ag9
aS'Un_KI270583v1:1-1400'
p18
ag9
aS'Un_KI270584v1:1-4513'
p19
ag9
aS'Un_KI270587v1:1-2969'
p20
ag9
aS'Un_KI270588v1:1-6158'
p21
aS'--min-candidate-sv-size'
p22
aS'8'
p23
aS'--min-edge-observations'
p24
aS'2'
p25
aS'--ref'
p26
aS'/home/robin/Documents/Project/Samples/hg38/hg38.fa'
p27
aS'--align-file'
p28
aS'/home/robin/Documents/Project/Samples/bam/single/17296.bam'
p29
ag28
aS'/home/robin/Documents/Project/Samples/bam/single/17298.bam'
p30
ag28
aS'/home/robin/Documents/Project/Samples/bam/single/17299.bam'
p31
ag28
aS'/home/robin/Documents/Project/Samples/bam/single/17300.bam'
p32
ag28
aS'/home/robin/Documents/Project/Samples/bam/single/17301.bam'
p33
ag28
aS'/home/robin/Documents/Project/Samples/bam/single/17304.bam'
p34
ag28
aS'/home/robin/Documents/Project/Samples/bam/single/17305.bam'
p35
ag28
aS'/home/robin/Documents/Project/Samples/bam/single/17306.bam'
p36
ag28
aS'/home/robin/Documents/Project/Samples/bam/single/17308.bam'
p37
ag28
aS'/home/robin/Documents/Project/Samples/bam/single/17309.bam'
p38
ag28
aS'/home/robin/Documents/Project/Samples/bam/single/17310.bam'
p39
ag28
aS'/home/robin/Documents/Project/Samples/bam/single/17311.bam'
p40
ag28
aS'/home/robin/Documents/Project/Samples/bam/single/17312.bam'
p41
ag28
aS'/home/robin/Documents/Project/Samples/bam/single/17313.bam'
p42
ag28
aS'/home/robin/Documents/Project/Samples/bam/single/17314.bam'
p43
ag28
aS'/home/robin/Documents/Project/Samples/bam/single/17315.bam'
p44
ag28
aS'/home/robin/Documents/Project/Samples/bam/single/17316.bam'
p45
ag28
aS'/home/robin/Documents/Project/Samples/bam/single/17317.bam'
p46
ag28
aS'/home/robin/Documents/Project/Samples/bam/single/17319.bam'
p47
ag28
aS'/home/robin/Documents/Project/Samples/bam/single/17320.bam'
p48
ag28
aS'/home/robin/Documents/Project/Samples/bam/single/17326.bam'
p49
ag28
aS'/home/robin/Documents/Project/Samples/bam/single/17327.bam'
p50
ag28
aS'/home/robin/Documents/Project/Samples/bam/single/17328.bam'
p51
ag28
aS'/home/robin/Documents/Project/Samples/bam/single/17329.bam'
p52
ag28
aS'/home/robin/Documents/Project/Samples/bam/single/17330.bam'
p53
ag28
aS'/home/robin/Documents/Project/Samples/bam/single/17333.bam'
p54
ag28
aS'/home/robin/Documents/Project/Samples/bam/single/17339.bam'
p55
ag28
aS'/home/robin/Documents/Project/Samples/bam/single/17356.bam'
p56
ag28
aS'/home/robin/Documents/Project/Samples/bam/single/17360.bam'
p57
ag28
aS'/home/robin/Documents/Project/Samples/bam/single/17361.bam'
p58
ag28
aS'/home/robin/Documents/Project/Samples/bam/single/17362.bam'
p59
ag28
aS'/home/robin/Documents/Project/Samples/bam/single/17364.bam'
p60
ag28
aS'/home/robin/Documents/Project/Samples/bam/single/17365.bam'
p61
ag28
aS'/home/robin/Documents/Project/Samples/bam/single/17367.bam'
p62
ag28
aS'/home/robin/Documents/Project/Samples/bam/single/17368.bam'
p63
ag28
aS'/home/robin/Documents/Project/Samples/bam/single/17369.bam'
p64
ag28
aS'/home/robin/Documents/Project/Samples/bam/single/17370.bam'
p65
ag28
aS'/home/robin/Documents/Project/Samples/bam/single/17371.bam'
p66
ag28
aS'/home/robin/Documents/Project/Samples/bam/single/17373.bam'
p67
ag28
aS'/home/robin/Documents/Project/Samples/bam/single/17374.bam'
p68
ag28
aS'/home/robin/Documents/Project/Samples/bam/single/17376.bam'
p69
ag28
aS'/home/robin/Documents/Project/Samples/bam/single/17382.bam'
p70
ag28
aS'/home/robin/Documents/Project/Samples/bam/single/17384.bam'
p71
ag28
aS'/home/robin/Documents/Project/Samples/bam/single/17386.bam'
p72
ag28
aS'/home/robin/Documents/Project/Samples/bam/single/17387.bam'
p73
ag28
aS'/home/robin/Documents/Project/Samples/bam/single/17389.bam'
p74
ag28
aS'/home/robin/Documents/Project/Samples/bam/single/17391.bam'
p75
ag28
aS'/home/robin/Documents/Project/Samples/bam/single/17392.bam'
p76
ag28
aS'/home/robin/Documents/Project/Samples/bam/single/17397.bam'
p77
ag28
aS'/home/robin/Documents/Project/Samples/bam/single/17398.bam'
p78
ag28
aS'/home/robin/Documents/Project/Samples/bam/single/17399.bam'
p79
ag28
aS'/home/robin/Documents/Project/Samples/bam/single/17401.bam'
p80
ag28
aS'/home/robin/Documents/Project/Samples/bam/single/17402.bam'
p81
ag28
aS'/home/robin/Documents/Project/Samples/bam/single/17403.bam'
p82
asS'errFile'
p83
S'/home/robin/Documents/Project/TFM_code/CNVbenchmarkeR-master/output/manta-datasetsingle/workspace/pyflow.data/logs/pyflow_tasks_stderr_log.txt'
p84
sS'outFile'
p85
S'/home/robin/Documents/Project/TFM_code/CNVbenchmarkeR-master/output/manta-datasetsingle/workspace/pyflow.data/logs/pyflow_tasks_stdout_log.txt'
p86
sS'env'
p87
NsS'nCores'
p88
I1
sS'cwd'
p89
S''
p90
s.