(dp0
S'manta'
p1
(dp2
S'mantaMergeStatsBin'
p3
S'/home/robin/Documents/Project/manta/Install/libexec/MergeAlignmentStats'
p4
sS'isExome'
p5
I01
sS'enableEvidenceSignalFilter'
p6
S'1'
p7
sS'existingAlignStatsFile'
p8
NsS'referenceFasta'
p9
S'/home/robin/Documents/Project/Samples/hg38/hg38.fa'
p10
sS'hyGenSGEMemMb'
p11
I4096
sS'minPassSomaticScore'
p12
S'30'
p13
sS'tumorBamList'
p14
NsS'workflowScriptName'
p15
S'runWorkflow.py'
p16
sS'normalBamList'
p17
(lp18
S'/home/robin/Documents/Project/Samples/example/bam_ex/17296.bam'
p19
aS'/home/robin/Documents/Project/Samples/example/bam_ex/17297.bam'
p20
aS'/home/robin/Documents/Project/Samples/example/bam_ex/17298.bam'
p21
aS'/home/robin/Documents/Project/Samples/example/bam_ex/17299.bam'
p22
aS'/home/robin/Documents/Project/Samples/example/bam_ex/17300.bam'
p23
aS'/home/robin/Documents/Project/Samples/example/bam_ex/17301.bam'
p24
aS'/home/robin/Documents/Project/Samples/example/bam_ex/17302.bam'
p25
aS'/home/robin/Documents/Project/Samples/example/bam_ex/17303.bam'
p26
aS'/home/robin/Documents/Project/Samples/example/bam_ex/17304.bam'
p27
aS'/home/robin/Documents/Project/Samples/example/bam_ex/17305.bam'
p28
asS'estimateMemMb'
p29
F1536.0
sS'mantaSortVcf'
p30
S'/home/robin/Documents/Project/manta/Install/libexec/sortVcf.py'
p31
sS'scanSizeMb'
p32
I12
sS'libexecDir'
p33
S'/home/robin/Documents/Project/manta/Install/libexec'
p34
sS'isRetainTempFiles'
p35
I00
sS'isRNA'
p36
I00
sS'mantaSortEdgeLogs'
p37
S'/home/robin/Documents/Project/manta/Install/libexec/sortEdgeLogs.py'
p38
sS'tabixBin'
p39
S'/home/robin/Documents/Project/manta/Install/libexec/tabix'
p40
sS'rnaMinCandidateVariantSize'
p41
S'1000'
p42
sS'callRegionsBed'
p43
NsS'mantaPloidyFilter'
p44
S'/home/robin/Documents/Project/manta/Install/libexec/ploidyFilter.py'
p45
sS'mantaSortBam'
p46
S'/home/robin/Documents/Project/manta/Install/libexec/sortBam.py'
p47
sS'samtoolsBin'
p48
S'/home/robin/Documents/Project/manta/Install/libexec/samtools'
p49
sS'useExistingChromDepths'
p50
I00
sS'vcfCmdlineSwapper'
p51
S'/home/robin/Documents/Project/manta/Install/libexec/vcfCmdlineSwapper.py'
p52
sS'mantaExtraSmallVcf'
p53
S'/home/robin/Documents/Project/manta/Install/libexec/extractSmallIndelCandidates.py'
p54
sS'mantaMergeBam'
p55
S'/home/robin/Documents/Project/manta/Install/libexec/mergeBam.py'
p56
sS'mantaStatsSummaryBin'
p57
S'/home/robin/Documents/Project/manta/Install/libexec/SummarizeAlignmentStats'
p58
sS'minScoredVariantSize'
p59
S'50'
p60
sS'mantaGraphStatsBin'
p61
S'/home/robin/Documents/Project/manta/Install/libexec/SummarizeSVLoci'
p62
sS'mantaGraphCheckBin'
p63
S'/home/robin/Documents/Project/manta/Install/libexec/CheckSVLoci'
p64
sS'minSomaticScore'
p65
S'10'
p66
sS'minCandidateVariantSize'
p67
S'8'
p68
sS'mantaGraphMergeBin'
p69
S'/home/robin/Documents/Project/manta/Install/libexec/MergeSVLoci'
p70
sS'genomeRegionList'
p71
NsS'getChromDepthBin'
p72
S'/home/robin/Documents/Project/manta/Install/libexec/GetChromDepth'
p73
sS'minPassDiploidGTScore'
p74
S'15'
p75
sS'graphNodeMaxEdgeCount'
p76
S'0'
p77
sS'enableRemoteReadRetrievalForInsertionsInCancerCallingModes'
p78
g77
sS'mergeChromDepth'
p79
S'/home/robin/Documents/Project/manta/Install/libexec/mergeChromDepth.py'
p80
sS'isUnstrandedRNA'
p81
I00
sS'catScript'
p82
S'/home/robin/Documents/Project/manta/Install/libexec/cat.py'
p83
sS'runDir'
p84
S'/home/robin/Documents/Project/TFM_code/CNVbenchmarkeR-master/output/manta-dataset1'
p85
sS'hyGenLocalMemMb'
p86
F1536.0
sS'enableRemoteReadRetrievalForInsertionsInGermlineCallingModes'
p87
g7
sS'mantaGraphBin'
p88
S'/home/robin/Documents/Project/manta/Install/libexec/EstimateSVLoci'
p89
sS'regionStrList'
p90
NsS'mergeMemMb'
p91
I4096
sS'isGenerateSupportBam'
p92
I00
sS'minPassDiploidVariantScore'
p93
S'20'
p94
sS'callMemMbOverride'
p95
NsS'userConfigPath'
p96
S'/home/robin/Documents/Project/TFM_code/CNVbenchmarkeR-master/output/manta-dataset1/configManta.py.ini'
p97
sS'minEdgeObservations'
p98
g7
sS'minDiploidVariantScore'
p99
S'10'
p100
sS'minCandidateSpanningCount'
p101
g7
sS'mantaStatsBin'
p102
S'/home/robin/Documents/Project/manta/Install/libexec/GetAlignmentStats'
p103
sS'mantaHyGenBin'
p104
S'/home/robin/Documents/Project/manta/Install/libexec/GenerateSVCandidates'
p105
sS'htsfileBin'
p106
S'/home/robin/Documents/Project/manta/Install/libexec/htsfile'
p107
sS'useOverlapPairEvidence'
p108
g77
sS'bgzipBin'
p109
S'/home/robin/Documents/Project/manta/Install/libexec/bgzip'
p110
sS'configCommandLine'
p111
(lp112
S'/home/robin/Documents/Project/manta/Install/bin/configManta.py'
p113
aS'--bam=/home/robin/Documents/Project/Samples/example/bam_ex/17296.bam'
p114
aS'--bam=/home/robin/Documents/Project/Samples/example/bam_ex/17297.bam'
p115
aS'--bam=/home/robin/Documents/Project/Samples/example/bam_ex/17298.bam'
p116
aS'--bam=/home/robin/Documents/Project/Samples/example/bam_ex/17299.bam'
p117
aS'--bam=/home/robin/Documents/Project/Samples/example/bam_ex/17300.bam'
p118
aS'--bam=/home/robin/Documents/Project/Samples/example/bam_ex/17301.bam'
p119
aS'--bam=/home/robin/Documents/Project/Samples/example/bam_ex/17302.bam'
p120
aS'--bam=/home/robin/Documents/Project/Samples/example/bam_ex/17303.bam'
p121
aS'--bam=/home/robin/Documents/Project/Samples/example/bam_ex/17304.bam'
p122
aS'--bam=/home/robin/Documents/Project/Samples/example/bam_ex/17305.bam'
p123
aS'--referenceFasta=/home/robin/Documents/Project/Samples/hg38/hg38.fa'
p124
aS'--config=/home/robin/Documents/Project/TFM_code/CNVbenchmarkeR-master/output/manta-dataset1/configManta.py.ini'
p125
aS'--exome'
p126
aS'--runDir=/home/robin/Documents/Project/TFM_code/CNVbenchmarkeR-master/output/manta-dataset1'
p127
asS'isOutputContig'
p128
I00
ss.