(dp0
S'isShellCmd'
p1
I00
sS'cmd'
p2
(lp3
S'/home/robin/Documents/Project/manta/Install/libexec/EstimateSVLoci'
p4
aS'--output-file'
p5
aS'/home/robin/Documents/Project/TFM_code/CNVbenchmarkeR-master/output/manta-datasetsinglefilter/workspace/svLocusGraph.bin.tmpdir/svLocusGraph.chromId_416_Un_KI270519v1_0000_to_chromId_421_Un_KI270530v1_0000.bin'
p6
aS'--align-stats'
p7
aS'/home/robin/Documents/Project/TFM_code/CNVbenchmarkeR-master/output/manta-datasetsinglefilter/workspace/alignmentStats.xml'
p8
aS'--region'
p9
aS'Un_KI270519v1:1-138126'
p10
ag9
aS'Un_KI270521v1:1-7642'
p11
ag9
aS'Un_KI270522v1:1-5674'
p12
ag9
aS'Un_KI270528v1:1-2983'
p13
ag9
aS'Un_KI270529v1:1-1899'
p14
ag9
aS'Un_KI270530v1:1-2168'
p15
aS'--min-candidate-sv-size'
p16
aS'8'
p17
aS'--min-edge-observations'
p18
aS'1'
p19
aS'--ref'
p20
aS'/home/robin/Documents/Project/Samples/hg38/hg38.fa'
p21
aS'--align-file'
p22
aS'/home/robin/Documents/Project/Samples/bam/single/17296.bam'
p23
ag22
aS'/home/robin/Documents/Project/Samples/bam/single/17298.bam'
p24
ag22
aS'/home/robin/Documents/Project/Samples/bam/single/17299.bam'
p25
ag22
aS'/home/robin/Documents/Project/Samples/bam/single/17300.bam'
p26
ag22
aS'/home/robin/Documents/Project/Samples/bam/single/17301.bam'
p27
ag22
aS'/home/robin/Documents/Project/Samples/bam/single/17304.bam'
p28
ag22
aS'/home/robin/Documents/Project/Samples/bam/single/17305.bam'
p29
ag22
aS'/home/robin/Documents/Project/Samples/bam/single/17306.bam'
p30
ag22
aS'/home/robin/Documents/Project/Samples/bam/single/17308.bam'
p31
ag22
aS'/home/robin/Documents/Project/Samples/bam/single/17309.bam'
p32
ag22
aS'/home/robin/Documents/Project/Samples/bam/single/17310.bam'
p33
ag22
aS'/home/robin/Documents/Project/Samples/bam/single/17311.bam'
p34
ag22
aS'/home/robin/Documents/Project/Samples/bam/single/17312.bam'
p35
ag22
aS'/home/robin/Documents/Project/Samples/bam/single/17313.bam'
p36
ag22
aS'/home/robin/Documents/Project/Samples/bam/single/17314.bam'
p37
ag22
aS'/home/robin/Documents/Project/Samples/bam/single/17315.bam'
p38
ag22
aS'/home/robin/Documents/Project/Samples/bam/single/17316.bam'
p39
ag22
aS'/home/robin/Documents/Project/Samples/bam/single/17317.bam'
p40
ag22
aS'/home/robin/Documents/Project/Samples/bam/single/17319.bam'
p41
ag22
aS'/home/robin/Documents/Project/Samples/bam/single/17320.bam'
p42
ag22
aS'/home/robin/Documents/Project/Samples/bam/single/17326.bam'
p43
ag22
aS'/home/robin/Documents/Project/Samples/bam/single/17327.bam'
p44
ag22
aS'/home/robin/Documents/Project/Samples/bam/single/17328.bam'
p45
ag22
aS'/home/robin/Documents/Project/Samples/bam/single/17329.bam'
p46
ag22
aS'/home/robin/Documents/Project/Samples/bam/single/17330.bam'
p47
ag22
aS'/home/robin/Documents/Project/Samples/bam/single/17333.bam'
p48
ag22
aS'/home/robin/Documents/Project/Samples/bam/single/17339.bam'
p49
ag22
aS'/home/robin/Documents/Project/Samples/bam/single/17356.bam'
p50
ag22
aS'/home/robin/Documents/Project/Samples/bam/single/17360.bam'
p51
ag22
aS'/home/robin/Documents/Project/Samples/bam/single/17361.bam'
p52
ag22
aS'/home/robin/Documents/Project/Samples/bam/single/17362.bam'
p53
ag22
aS'/home/robin/Documents/Project/Samples/bam/single/17364.bam'
p54
ag22
aS'/home/robin/Documents/Project/Samples/bam/single/17365.bam'
p55
ag22
aS'/home/robin/Documents/Project/Samples/bam/single/17367.bam'
p56
ag22
aS'/home/robin/Documents/Project/Samples/bam/single/17368.bam'
p57
ag22
aS'/home/robin/Documents/Project/Samples/bam/single/17369.bam'
p58
ag22
aS'/home/robin/Documents/Project/Samples/bam/single/17370.bam'
p59
ag22
aS'/home/robin/Documents/Project/Samples/bam/single/17371.bam'
p60
ag22
aS'/home/robin/Documents/Project/Samples/bam/single/17373.bam'
p61
ag22
aS'/home/robin/Documents/Project/Samples/bam/single/17374.bam'
p62
ag22
aS'/home/robin/Documents/Project/Samples/bam/single/17376.bam'
p63
ag22
aS'/home/robin/Documents/Project/Samples/bam/single/17382.bam'
p64
ag22
aS'/home/robin/Documents/Project/Samples/bam/single/17384.bam'
p65
ag22
aS'/home/robin/Documents/Project/Samples/bam/single/17386.bam'
p66
ag22
aS'/home/robin/Documents/Project/Samples/bam/single/17387.bam'
p67
ag22
aS'/home/robin/Documents/Project/Samples/bam/single/17389.bam'
p68
ag22
aS'/home/robin/Documents/Project/Samples/bam/single/17391.bam'
p69
ag22
aS'/home/robin/Documents/Project/Samples/bam/single/17392.bam'
p70
ag22
aS'/home/robin/Documents/Project/Samples/bam/single/17397.bam'
p71
ag22
aS'/home/robin/Documents/Project/Samples/bam/single/17398.bam'
p72
ag22
aS'/home/robin/Documents/Project/Samples/bam/single/17399.bam'
p73
ag22
aS'/home/robin/Documents/Project/Samples/bam/single/17401.bam'
p74
ag22
aS'/home/robin/Documents/Project/Samples/bam/single/17402.bam'
p75
ag22
aS'/home/robin/Documents/Project/Samples/bam/single/17403.bam'
p76
asS'errFile'
p77
S'/home/robin/Documents/Project/TFM_code/CNVbenchmarkeR-master/output/manta-datasetsinglefilter/workspace/pyflow.data/logs/pyflow_tasks_stderr_log.txt'
p78
sS'outFile'
p79
S'/home/robin/Documents/Project/TFM_code/CNVbenchmarkeR-master/output/manta-datasetsinglefilter/workspace/pyflow.data/logs/pyflow_tasks_stdout_log.txt'
p80
sS'env'
p81
NsS'nCores'
p82
I1
sS'cwd'
p83
S''
p84
s.