(dp0
S'isShellCmd'
p1
I00
sS'cmd'
p2
(lp3
S'/home/robin/Documents/Project/manta/Install/libexec/EstimateSVLoci'
p4
aS'--output-file'
p5
aS'/home/robin/Documents/Project/TFM_code/CNVbenchmarkeR-master/output/manta-datasetall/workspace/svLocusGraph.bin.tmpdir/svLocusGraph.chromId_416_Un_KI270519v1_0000_to_chromId_421_Un_KI270530v1_0000.bin'
p6
aS'--align-stats'
p7
aS'/home/robin/Documents/Project/TFM_code/CNVbenchmarkeR-master/output/manta-datasetall/workspace/alignmentStats.xml'
p8
aS'--region'
p9
aS'Un_KI270519v1:1-138126'
p10
ag9
aS'Un_KI270521v1:1-7642'
p11
ag9
aS'Un_KI270522v1:1-5674'
p12
ag9
aS'Un_KI270528v1:1-2983'
p13
ag9
aS'Un_KI270529v1:1-1899'
p14
ag9
aS'Un_KI270530v1:1-2168'
p15
aS'--min-candidate-sv-size'
p16
aS'8'
p17
aS'--min-edge-observations'
p18
aS'2'
p19
aS'--ref'
p20
aS'/home/robin/Documents/Project/Samples/hg38/hg38.fa'
p21
aS'--align-file'
p22
aS'/home/robin/Documents/Project/Samples/bam/all/17296.bam'
p23
ag22
aS'/home/robin/Documents/Project/Samples/bam/all/17297.bam'
p24
ag22
aS'/home/robin/Documents/Project/Samples/bam/all/17298.bam'
p25
ag22
aS'/home/robin/Documents/Project/Samples/bam/all/17299.bam'
p26
ag22
aS'/home/robin/Documents/Project/Samples/bam/all/17300.bam'
p27
ag22
aS'/home/robin/Documents/Project/Samples/bam/all/17301.bam'
p28
ag22
aS'/home/robin/Documents/Project/Samples/bam/all/17302.bam'
p29
ag22
aS'/home/robin/Documents/Project/Samples/bam/all/17303.bam'
p30
ag22
aS'/home/robin/Documents/Project/Samples/bam/all/17304.bam'
p31
ag22
aS'/home/robin/Documents/Project/Samples/bam/all/17305.bam'
p32
ag22
aS'/home/robin/Documents/Project/Samples/bam/all/17306.bam'
p33
ag22
aS'/home/robin/Documents/Project/Samples/bam/all/17307.bam'
p34
ag22
aS'/home/robin/Documents/Project/Samples/bam/all/17308.bam'
p35
ag22
aS'/home/robin/Documents/Project/Samples/bam/all/17309.bam'
p36
ag22
aS'/home/robin/Documents/Project/Samples/bam/all/17310.bam'
p37
ag22
aS'/home/robin/Documents/Project/Samples/bam/all/17311.bam'
p38
ag22
aS'/home/robin/Documents/Project/Samples/bam/all/17312.bam'
p39
ag22
aS'/home/robin/Documents/Project/Samples/bam/all/17313.bam'
p40
ag22
aS'/home/robin/Documents/Project/Samples/bam/all/17314.bam'
p41
ag22
aS'/home/robin/Documents/Project/Samples/bam/all/17315.bam'
p42
ag22
aS'/home/robin/Documents/Project/Samples/bam/all/17316.bam'
p43
ag22
aS'/home/robin/Documents/Project/Samples/bam/all/17317.bam'
p44
ag22
aS'/home/robin/Documents/Project/Samples/bam/all/17318.bam'
p45
ag22
aS'/home/robin/Documents/Project/Samples/bam/all/17319.bam'
p46
ag22
aS'/home/robin/Documents/Project/Samples/bam/all/17320.bam'
p47
ag22
aS'/home/robin/Documents/Project/Samples/bam/all/17321.bam'
p48
ag22
aS'/home/robin/Documents/Project/Samples/bam/all/17322.bam'
p49
ag22
aS'/home/robin/Documents/Project/Samples/bam/all/17323.bam'
p50
ag22
aS'/home/robin/Documents/Project/Samples/bam/all/17324.bam'
p51
ag22
aS'/home/robin/Documents/Project/Samples/bam/all/17325.bam'
p52
ag22
aS'/home/robin/Documents/Project/Samples/bam/all/17326.bam'
p53
ag22
aS'/home/robin/Documents/Project/Samples/bam/all/17327.bam'
p54
ag22
aS'/home/robin/Documents/Project/Samples/bam/all/17328.bam'
p55
ag22
aS'/home/robin/Documents/Project/Samples/bam/all/17329.bam'
p56
ag22
aS'/home/robin/Documents/Project/Samples/bam/all/17330.bam'
p57
ag22
aS'/home/robin/Documents/Project/Samples/bam/all/17331.bam'
p58
ag22
aS'/home/robin/Documents/Project/Samples/bam/all/17332.bam'
p59
ag22
aS'/home/robin/Documents/Project/Samples/bam/all/17333.bam'
p60
ag22
aS'/home/robin/Documents/Project/Samples/bam/all/17334.bam'
p61
ag22
aS'/home/robin/Documents/Project/Samples/bam/all/17335.bam'
p62
ag22
aS'/home/robin/Documents/Project/Samples/bam/all/17336.bam'
p63
ag22
aS'/home/robin/Documents/Project/Samples/bam/all/17337.bam'
p64
ag22
aS'/home/robin/Documents/Project/Samples/bam/all/17338.bam'
p65
ag22
aS'/home/robin/Documents/Project/Samples/bam/all/17339.bam'
p66
ag22
aS'/home/robin/Documents/Project/Samples/bam/all/17340.bam'
p67
ag22
aS'/home/robin/Documents/Project/Samples/bam/all/17341.bam'
p68
ag22
aS'/home/robin/Documents/Project/Samples/bam/all/17342.bam'
p69
ag22
aS'/home/robin/Documents/Project/Samples/bam/all/17343.bam'
p70
ag22
aS'/home/robin/Documents/Project/Samples/bam/all/17356.bam'
p71
ag22
aS'/home/robin/Documents/Project/Samples/bam/all/17357.bam'
p72
ag22
aS'/home/robin/Documents/Project/Samples/bam/all/17358.bam'
p73
ag22
aS'/home/robin/Documents/Project/Samples/bam/all/17359.bam'
p74
ag22
aS'/home/robin/Documents/Project/Samples/bam/all/17360.bam'
p75
ag22
aS'/home/robin/Documents/Project/Samples/bam/all/17361.bam'
p76
ag22
aS'/home/robin/Documents/Project/Samples/bam/all/17362.bam'
p77
ag22
aS'/home/robin/Documents/Project/Samples/bam/all/17363.bam'
p78
ag22
aS'/home/robin/Documents/Project/Samples/bam/all/17364.bam'
p79
ag22
aS'/home/robin/Documents/Project/Samples/bam/all/17365.bam'
p80
ag22
aS'/home/robin/Documents/Project/Samples/bam/all/17366.bam'
p81
ag22
aS'/home/robin/Documents/Project/Samples/bam/all/17367.bam'
p82
ag22
aS'/home/robin/Documents/Project/Samples/bam/all/17368.bam'
p83
ag22
aS'/home/robin/Documents/Project/Samples/bam/all/17369.bam'
p84
ag22
aS'/home/robin/Documents/Project/Samples/bam/all/17370.bam'
p85
ag22
aS'/home/robin/Documents/Project/Samples/bam/all/17371.bam'
p86
ag22
aS'/home/robin/Documents/Project/Samples/bam/all/17372.bam'
p87
ag22
aS'/home/robin/Documents/Project/Samples/bam/all/17373.bam'
p88
ag22
aS'/home/robin/Documents/Project/Samples/bam/all/17374.bam'
p89
ag22
aS'/home/robin/Documents/Project/Samples/bam/all/17375.bam'
p90
ag22
aS'/home/robin/Documents/Project/Samples/bam/all/17376.bam'
p91
ag22
aS'/home/robin/Documents/Project/Samples/bam/all/17377.bam'
p92
ag22
aS'/home/robin/Documents/Project/Samples/bam/all/17378.bam'
p93
ag22
aS'/home/robin/Documents/Project/Samples/bam/all/17379.bam'
p94
ag22
aS'/home/robin/Documents/Project/Samples/bam/all/17380.bam'
p95
ag22
aS'/home/robin/Documents/Project/Samples/bam/all/17381.bam'
p96
ag22
aS'/home/robin/Documents/Project/Samples/bam/all/17382.bam'
p97
ag22
aS'/home/robin/Documents/Project/Samples/bam/all/17383.bam'
p98
ag22
aS'/home/robin/Documents/Project/Samples/bam/all/17384.bam'
p99
ag22
aS'/home/robin/Documents/Project/Samples/bam/all/17385.bam'
p100
ag22
aS'/home/robin/Documents/Project/Samples/bam/all/17386.bam'
p101
ag22
aS'/home/robin/Documents/Project/Samples/bam/all/17387.bam'
p102
ag22
aS'/home/robin/Documents/Project/Samples/bam/all/17388.bam'
p103
ag22
aS'/home/robin/Documents/Project/Samples/bam/all/17389.bam'
p104
ag22
aS'/home/robin/Documents/Project/Samples/bam/all/17390.bam'
p105
ag22
aS'/home/robin/Documents/Project/Samples/bam/all/17391.bam'
p106
ag22
aS'/home/robin/Documents/Project/Samples/bam/all/17392.bam'
p107
ag22
aS'/home/robin/Documents/Project/Samples/bam/all/17393.bam'
p108
ag22
aS'/home/robin/Documents/Project/Samples/bam/all/17394.bam'
p109
ag22
aS'/home/robin/Documents/Project/Samples/bam/all/17395.bam'
p110
ag22
aS'/home/robin/Documents/Project/Samples/bam/all/17396.bam'
p111
ag22
aS'/home/robin/Documents/Project/Samples/bam/all/17397.bam'
p112
ag22
aS'/home/robin/Documents/Project/Samples/bam/all/17398.bam'
p113
ag22
aS'/home/robin/Documents/Project/Samples/bam/all/17399.bam'
p114
ag22
aS'/home/robin/Documents/Project/Samples/bam/all/17400.bam'
p115
ag22
aS'/home/robin/Documents/Project/Samples/bam/all/17401.bam'
p116
ag22
aS'/home/robin/Documents/Project/Samples/bam/all/17402.bam'
p117
ag22
aS'/home/robin/Documents/Project/Samples/bam/all/17403.bam'
p118
asS'errFile'
p119
S'/home/robin/Documents/Project/TFM_code/CNVbenchmarkeR-master/output/manta-datasetall/workspace/pyflow.data/logs/pyflow_tasks_stderr_log.txt'
p120
sS'outFile'
p121
S'/home/robin/Documents/Project/TFM_code/CNVbenchmarkeR-master/output/manta-datasetall/workspace/pyflow.data/logs/pyflow_tasks_stdout_log.txt'
p122
sS'env'
p123
NsS'nCores'
p124
I1
sS'cwd'
p125
S''
p126
s.