(dp0
S'isShellCmd'
p1
I00
sS'cmd'
p2
(lp3
S'/home/robin/Documents/Project/manta/Install/libexec/EstimateSVLoci'
p4
aS'--output-file'
p5
aS'/home/robin/Documents/Project/TFM_code/CNVbenchmarkeR/output/manta2-datasetall/results17298/workspace/svLocusGraph.bin.tmpdir/svLocusGraph.chromId_335_Un_GL000224v1_0000_to_chromId_338_Un_KI270303v1_0000.bin'
p6
aS'--align-stats'
p7
aS'/home/robin/Documents/Project/TFM_code/CNVbenchmarkeR/output/manta2-datasetall/results17298/workspace/alignmentStats.xml'
p8
aS'--region'
p9
aS'Un_GL000224v1:1-179693'
p10
ag9
aS'Un_GL000226v1:1-15008'
p11
ag9
aS'Un_KI270302v1:1-2274'
p12
ag9
aS'Un_KI270303v1:1-1942'
p13
aS'--min-candidate-sv-size'
p14
aS'8'
p15
aS'--min-edge-observations'
p16
aS'2'
p17
aS'--ref'
p18
aS'/home/robin/Documents/Project/Samples/hg38/hg38.fa'
p19
aS'--align-file'
p20
aS'/home/robin/Documents/Project/Samples/bam/all/17298.bam'
p21
asS'errFile'
p22
S'/home/robin/Documents/Project/TFM_code/CNVbenchmarkeR/output/manta2-datasetall/results17298/workspace/pyflow.data/logs/pyflow_tasks_stderr_log.txt'
p23
sS'outFile'
p24
S'/home/robin/Documents/Project/TFM_code/CNVbenchmarkeR/output/manta2-datasetall/results17298/workspace/pyflow.data/logs/pyflow_tasks_stdout_log.txt'
p25
sS'env'
p26
NsS'nCores'
p27
I1
sS'cwd'
p28
S''
p29
s.