(dp0
S'isShellCmd'
p1
I00
sS'cmd'
p2
(lp3
S'/home/robin/Documents/Project/manta/Install/libexec/EstimateSVLoci'
p4
aS'--output-file'
p5
aS'/home/robin/Documents/Project/TFM_code/CNVbenchmarkeR-master/output/manta-datasetsingle/workspace/svLocusGraph.bin.tmpdir/svLocusGraph.chromId_450_Un_KI270753v1_0000_to_chromId_452_Un_KI270755v1_0000.bin'
p6
aS'--align-stats'
p7
aS'/home/robin/Documents/Project/TFM_code/CNVbenchmarkeR-master/output/manta-datasetsingle/workspace/alignmentStats.xml'
p8
aS'--region'
p9
aS'Un_KI270753v1:1-62944'
p10
ag9
aS'Un_KI270754v1:1-40191'
p11
ag9
aS'Un_KI270755v1:1-36723'
p12
aS'--min-candidate-sv-size'
p13
aS'8'
p14
aS'--min-edge-observations'
p15
aS'2'
p16
aS'--ref'
p17
aS'/home/robin/Documents/Project/Samples/hg38/hg38.fa'
p18
aS'--align-file'
p19
aS'/home/robin/Documents/Project/Samples/bam/single/17296.bam'
p20
ag19
aS'/home/robin/Documents/Project/Samples/bam/single/17298.bam'
p21
ag19
aS'/home/robin/Documents/Project/Samples/bam/single/17299.bam'
p22
ag19
aS'/home/robin/Documents/Project/Samples/bam/single/17300.bam'
p23
ag19
aS'/home/robin/Documents/Project/Samples/bam/single/17301.bam'
p24
ag19
aS'/home/robin/Documents/Project/Samples/bam/single/17304.bam'
p25
ag19
aS'/home/robin/Documents/Project/Samples/bam/single/17305.bam'
p26
ag19
aS'/home/robin/Documents/Project/Samples/bam/single/17306.bam'
p27
ag19
aS'/home/robin/Documents/Project/Samples/bam/single/17308.bam'
p28
ag19
aS'/home/robin/Documents/Project/Samples/bam/single/17309.bam'
p29
ag19
aS'/home/robin/Documents/Project/Samples/bam/single/17310.bam'
p30
ag19
aS'/home/robin/Documents/Project/Samples/bam/single/17311.bam'
p31
ag19
aS'/home/robin/Documents/Project/Samples/bam/single/17312.bam'
p32
ag19
aS'/home/robin/Documents/Project/Samples/bam/single/17313.bam'
p33
ag19
aS'/home/robin/Documents/Project/Samples/bam/single/17314.bam'
p34
ag19
aS'/home/robin/Documents/Project/Samples/bam/single/17315.bam'
p35
ag19
aS'/home/robin/Documents/Project/Samples/bam/single/17316.bam'
p36
ag19
aS'/home/robin/Documents/Project/Samples/bam/single/17317.bam'
p37
ag19
aS'/home/robin/Documents/Project/Samples/bam/single/17319.bam'
p38
ag19
aS'/home/robin/Documents/Project/Samples/bam/single/17320.bam'
p39
ag19
aS'/home/robin/Documents/Project/Samples/bam/single/17326.bam'
p40
ag19
aS'/home/robin/Documents/Project/Samples/bam/single/17327.bam'
p41
ag19
aS'/home/robin/Documents/Project/Samples/bam/single/17328.bam'
p42
ag19
aS'/home/robin/Documents/Project/Samples/bam/single/17329.bam'
p43
ag19
aS'/home/robin/Documents/Project/Samples/bam/single/17330.bam'
p44
ag19
aS'/home/robin/Documents/Project/Samples/bam/single/17333.bam'
p45
ag19
aS'/home/robin/Documents/Project/Samples/bam/single/17339.bam'
p46
ag19
aS'/home/robin/Documents/Project/Samples/bam/single/17356.bam'
p47
ag19
aS'/home/robin/Documents/Project/Samples/bam/single/17360.bam'
p48
ag19
aS'/home/robin/Documents/Project/Samples/bam/single/17361.bam'
p49
ag19
aS'/home/robin/Documents/Project/Samples/bam/single/17362.bam'
p50
ag19
aS'/home/robin/Documents/Project/Samples/bam/single/17364.bam'
p51
ag19
aS'/home/robin/Documents/Project/Samples/bam/single/17365.bam'
p52
ag19
aS'/home/robin/Documents/Project/Samples/bam/single/17367.bam'
p53
ag19
aS'/home/robin/Documents/Project/Samples/bam/single/17368.bam'
p54
ag19
aS'/home/robin/Documents/Project/Samples/bam/single/17369.bam'
p55
ag19
aS'/home/robin/Documents/Project/Samples/bam/single/17370.bam'
p56
ag19
aS'/home/robin/Documents/Project/Samples/bam/single/17371.bam'
p57
ag19
aS'/home/robin/Documents/Project/Samples/bam/single/17373.bam'
p58
ag19
aS'/home/robin/Documents/Project/Samples/bam/single/17374.bam'
p59
ag19
aS'/home/robin/Documents/Project/Samples/bam/single/17376.bam'
p60
ag19
aS'/home/robin/Documents/Project/Samples/bam/single/17382.bam'
p61
ag19
aS'/home/robin/Documents/Project/Samples/bam/single/17384.bam'
p62
ag19
aS'/home/robin/Documents/Project/Samples/bam/single/17386.bam'
p63
ag19
aS'/home/robin/Documents/Project/Samples/bam/single/17387.bam'
p64
ag19
aS'/home/robin/Documents/Project/Samples/bam/single/17389.bam'
p65
ag19
aS'/home/robin/Documents/Project/Samples/bam/single/17391.bam'
p66
ag19
aS'/home/robin/Documents/Project/Samples/bam/single/17392.bam'
p67
ag19
aS'/home/robin/Documents/Project/Samples/bam/single/17397.bam'
p68
ag19
aS'/home/robin/Documents/Project/Samples/bam/single/17398.bam'
p69
ag19
aS'/home/robin/Documents/Project/Samples/bam/single/17399.bam'
p70
ag19
aS'/home/robin/Documents/Project/Samples/bam/single/17401.bam'
p71
ag19
aS'/home/robin/Documents/Project/Samples/bam/single/17402.bam'
p72
ag19
aS'/home/robin/Documents/Project/Samples/bam/single/17403.bam'
p73
asS'errFile'
p74
S'/home/robin/Documents/Project/TFM_code/CNVbenchmarkeR-master/output/manta-datasetsingle/workspace/pyflow.data/logs/pyflow_tasks_stderr_log.txt'
p75
sS'outFile'
p76
S'/home/robin/Documents/Project/TFM_code/CNVbenchmarkeR-master/output/manta-datasetsingle/workspace/pyflow.data/logs/pyflow_tasks_stdout_log.txt'
p77
sS'env'
p78
NsS'nCores'
p79
I1
sS'cwd'
p80
S''
p81
s.