(dp0
S'isShellCmd'
p1
I00
sS'cmd'
p2
(lp3
S'/home/robin/Documents/Project/manta/Install/libexec/EstimateSVLoci'
p4
aS'--output-file'
p5
aS'/home/robin/Documents/Project/TFM_code/CNVbenchmarkeR-master/output/manta-datasetall/workspace/svLocusGraph.bin.tmpdir/svLocusGraph.chromId_004_1_KI270709v1_random_0000_to_chromId_006_1_KI270711v1_random_0000.bin'
p6
aS'--align-stats'
p7
aS'/home/robin/Documents/Project/TFM_code/CNVbenchmarkeR-master/output/manta-datasetall/workspace/alignmentStats.xml'
p8
aS'--region'
p9
aS'1_KI270709v1_random:1-66860'
p10
ag9
aS'1_KI270710v1_random:1-40176'
p11
ag9
aS'1_KI270711v1_random:1-42210'
p12
aS'--min-candidate-sv-size'
p13
aS'8'
p14
aS'--min-edge-observations'
p15
aS'2'
p16
aS'--ref'
p17
aS'/home/robin/Documents/Project/Samples/hg38/hg38.fa'
p18
aS'--align-file'
p19
aS'/home/robin/Documents/Project/Samples/bam/all/17296.bam'
p20
ag19
aS'/home/robin/Documents/Project/Samples/bam/all/17297.bam'
p21
ag19
aS'/home/robin/Documents/Project/Samples/bam/all/17298.bam'
p22
ag19
aS'/home/robin/Documents/Project/Samples/bam/all/17299.bam'
p23
ag19
aS'/home/robin/Documents/Project/Samples/bam/all/17300.bam'
p24
ag19
aS'/home/robin/Documents/Project/Samples/bam/all/17301.bam'
p25
ag19
aS'/home/robin/Documents/Project/Samples/bam/all/17302.bam'
p26
ag19
aS'/home/robin/Documents/Project/Samples/bam/all/17303.bam'
p27
ag19
aS'/home/robin/Documents/Project/Samples/bam/all/17304.bam'
p28
ag19
aS'/home/robin/Documents/Project/Samples/bam/all/17305.bam'
p29
ag19
aS'/home/robin/Documents/Project/Samples/bam/all/17306.bam'
p30
ag19
aS'/home/robin/Documents/Project/Samples/bam/all/17307.bam'
p31
ag19
aS'/home/robin/Documents/Project/Samples/bam/all/17308.bam'
p32
ag19
aS'/home/robin/Documents/Project/Samples/bam/all/17309.bam'
p33
ag19
aS'/home/robin/Documents/Project/Samples/bam/all/17310.bam'
p34
ag19
aS'/home/robin/Documents/Project/Samples/bam/all/17311.bam'
p35
ag19
aS'/home/robin/Documents/Project/Samples/bam/all/17312.bam'
p36
ag19
aS'/home/robin/Documents/Project/Samples/bam/all/17313.bam'
p37
ag19
aS'/home/robin/Documents/Project/Samples/bam/all/17314.bam'
p38
ag19
aS'/home/robin/Documents/Project/Samples/bam/all/17315.bam'
p39
ag19
aS'/home/robin/Documents/Project/Samples/bam/all/17316.bam'
p40
ag19
aS'/home/robin/Documents/Project/Samples/bam/all/17317.bam'
p41
ag19
aS'/home/robin/Documents/Project/Samples/bam/all/17318.bam'
p42
ag19
aS'/home/robin/Documents/Project/Samples/bam/all/17319.bam'
p43
ag19
aS'/home/robin/Documents/Project/Samples/bam/all/17320.bam'
p44
ag19
aS'/home/robin/Documents/Project/Samples/bam/all/17321.bam'
p45
ag19
aS'/home/robin/Documents/Project/Samples/bam/all/17322.bam'
p46
ag19
aS'/home/robin/Documents/Project/Samples/bam/all/17323.bam'
p47
ag19
aS'/home/robin/Documents/Project/Samples/bam/all/17324.bam'
p48
ag19
aS'/home/robin/Documents/Project/Samples/bam/all/17325.bam'
p49
ag19
aS'/home/robin/Documents/Project/Samples/bam/all/17326.bam'
p50
ag19
aS'/home/robin/Documents/Project/Samples/bam/all/17327.bam'
p51
ag19
aS'/home/robin/Documents/Project/Samples/bam/all/17328.bam'
p52
ag19
aS'/home/robin/Documents/Project/Samples/bam/all/17329.bam'
p53
ag19
aS'/home/robin/Documents/Project/Samples/bam/all/17330.bam'
p54
ag19
aS'/home/robin/Documents/Project/Samples/bam/all/17331.bam'
p55
ag19
aS'/home/robin/Documents/Project/Samples/bam/all/17332.bam'
p56
ag19
aS'/home/robin/Documents/Project/Samples/bam/all/17333.bam'
p57
ag19
aS'/home/robin/Documents/Project/Samples/bam/all/17334.bam'
p58
ag19
aS'/home/robin/Documents/Project/Samples/bam/all/17335.bam'
p59
ag19
aS'/home/robin/Documents/Project/Samples/bam/all/17336.bam'
p60
ag19
aS'/home/robin/Documents/Project/Samples/bam/all/17337.bam'
p61
ag19
aS'/home/robin/Documents/Project/Samples/bam/all/17338.bam'
p62
ag19
aS'/home/robin/Documents/Project/Samples/bam/all/17339.bam'
p63
ag19
aS'/home/robin/Documents/Project/Samples/bam/all/17340.bam'
p64
ag19
aS'/home/robin/Documents/Project/Samples/bam/all/17341.bam'
p65
ag19
aS'/home/robin/Documents/Project/Samples/bam/all/17342.bam'
p66
ag19
aS'/home/robin/Documents/Project/Samples/bam/all/17343.bam'
p67
ag19
aS'/home/robin/Documents/Project/Samples/bam/all/17356.bam'
p68
ag19
aS'/home/robin/Documents/Project/Samples/bam/all/17357.bam'
p69
ag19
aS'/home/robin/Documents/Project/Samples/bam/all/17358.bam'
p70
ag19
aS'/home/robin/Documents/Project/Samples/bam/all/17359.bam'
p71
ag19
aS'/home/robin/Documents/Project/Samples/bam/all/17360.bam'
p72
ag19
aS'/home/robin/Documents/Project/Samples/bam/all/17361.bam'
p73
ag19
aS'/home/robin/Documents/Project/Samples/bam/all/17362.bam'
p74
ag19
aS'/home/robin/Documents/Project/Samples/bam/all/17363.bam'
p75
ag19
aS'/home/robin/Documents/Project/Samples/bam/all/17364.bam'
p76
ag19
aS'/home/robin/Documents/Project/Samples/bam/all/17365.bam'
p77
ag19
aS'/home/robin/Documents/Project/Samples/bam/all/17366.bam'
p78
ag19
aS'/home/robin/Documents/Project/Samples/bam/all/17367.bam'
p79
ag19
aS'/home/robin/Documents/Project/Samples/bam/all/17368.bam'
p80
ag19
aS'/home/robin/Documents/Project/Samples/bam/all/17369.bam'
p81
ag19
aS'/home/robin/Documents/Project/Samples/bam/all/17370.bam'
p82
ag19
aS'/home/robin/Documents/Project/Samples/bam/all/17371.bam'
p83
ag19
aS'/home/robin/Documents/Project/Samples/bam/all/17372.bam'
p84
ag19
aS'/home/robin/Documents/Project/Samples/bam/all/17373.bam'
p85
ag19
aS'/home/robin/Documents/Project/Samples/bam/all/17374.bam'
p86
ag19
aS'/home/robin/Documents/Project/Samples/bam/all/17375.bam'
p87
ag19
aS'/home/robin/Documents/Project/Samples/bam/all/17376.bam'
p88
ag19
aS'/home/robin/Documents/Project/Samples/bam/all/17377.bam'
p89
ag19
aS'/home/robin/Documents/Project/Samples/bam/all/17378.bam'
p90
ag19
aS'/home/robin/Documents/Project/Samples/bam/all/17379.bam'
p91
ag19
aS'/home/robin/Documents/Project/Samples/bam/all/17380.bam'
p92
ag19
aS'/home/robin/Documents/Project/Samples/bam/all/17381.bam'
p93
ag19
aS'/home/robin/Documents/Project/Samples/bam/all/17382.bam'
p94
ag19
aS'/home/robin/Documents/Project/Samples/bam/all/17383.bam'
p95
ag19
aS'/home/robin/Documents/Project/Samples/bam/all/17384.bam'
p96
ag19
aS'/home/robin/Documents/Project/Samples/bam/all/17385.bam'
p97
ag19
aS'/home/robin/Documents/Project/Samples/bam/all/17386.bam'
p98
ag19
aS'/home/robin/Documents/Project/Samples/bam/all/17387.bam'
p99
ag19
aS'/home/robin/Documents/Project/Samples/bam/all/17388.bam'
p100
ag19
aS'/home/robin/Documents/Project/Samples/bam/all/17389.bam'
p101
ag19
aS'/home/robin/Documents/Project/Samples/bam/all/17390.bam'
p102
ag19
aS'/home/robin/Documents/Project/Samples/bam/all/17391.bam'
p103
ag19
aS'/home/robin/Documents/Project/Samples/bam/all/17392.bam'
p104
ag19
aS'/home/robin/Documents/Project/Samples/bam/all/17393.bam'
p105
ag19
aS'/home/robin/Documents/Project/Samples/bam/all/17394.bam'
p106
ag19
aS'/home/robin/Documents/Project/Samples/bam/all/17395.bam'
p107
ag19
aS'/home/robin/Documents/Project/Samples/bam/all/17396.bam'
p108
ag19
aS'/home/robin/Documents/Project/Samples/bam/all/17397.bam'
p109
ag19
aS'/home/robin/Documents/Project/Samples/bam/all/17398.bam'
p110
ag19
aS'/home/robin/Documents/Project/Samples/bam/all/17399.bam'
p111
ag19
aS'/home/robin/Documents/Project/Samples/bam/all/17400.bam'
p112
ag19
aS'/home/robin/Documents/Project/Samples/bam/all/17401.bam'
p113
ag19
aS'/home/robin/Documents/Project/Samples/bam/all/17402.bam'
p114
ag19
aS'/home/robin/Documents/Project/Samples/bam/all/17403.bam'
p115
asS'errFile'
p116
S'/home/robin/Documents/Project/TFM_code/CNVbenchmarkeR-master/output/manta-datasetall/workspace/pyflow.data/logs/pyflow_tasks_stderr_log.txt'
p117
sS'outFile'
p118
S'/home/robin/Documents/Project/TFM_code/CNVbenchmarkeR-master/output/manta-datasetall/workspace/pyflow.data/logs/pyflow_tasks_stdout_log.txt'
p119
sS'env'
p120
NsS'nCores'
p121
I1
sS'cwd'
p122
S''
p123
s.