(dp0
S'isShellCmd'
p1
I00
sS'cmd'
p2
(lp3
S'/home/robin/Documents/Project/manta/Install/libexec/EstimateSVLoci'
p4
aS'--output-file'
p5
aS'/home/robin/Documents/Project/TFM_code/CNVbenchmarkeR-master/output/manta-datasetclinic/set8/workspace/svLocusGraph.bin.tmpdir/svLocusGraph.chromId_008_1_KI270713v1_random_0000_to_chromId_009_1_KI270714v1_random_0000.bin'
p6
aS'--align-stats'
p7
aS'/home/robin/Documents/Project/TFM_code/CNVbenchmarkeR-master/output/manta-datasetclinic/set8/workspace/alignmentStats.xml'
p8
aS'--region'
p9
aS'1_KI270713v1_random:1-40745'
p10
ag9
aS'1_KI270714v1_random:1-41717'
p11
aS'--min-candidate-sv-size'
p12
aS'8'
p13
aS'--min-edge-observations'
p14
aS'2'
p15
aS'--ref'
p16
aS'/home/robin/Documents/Project/Samples/hg38/hg38.fa'
p17
aS'--align-file'
p18
aS'/home/robin/Documents/Project/Samples/bam/all/17338.bam'
p19
ag18
aS'/home/robin/Documents/Project/Samples/bam/all/17339.bam'
p20
ag18
aS'/home/robin/Documents/Project/Samples/bam/all/17340.bam'
p21
ag18
aS'/home/robin/Documents/Project/Samples/bam/all/17341.bam'
p22
ag18
aS'/home/robin/Documents/Project/Samples/bam/all/17342.bam'
p23
ag18
aS'/home/robin/Documents/Project/Samples/bam/all/17343.bam'
p24
asS'errFile'
p25
S'/home/robin/Documents/Project/TFM_code/CNVbenchmarkeR-master/output/manta-datasetclinic/set8/workspace/pyflow.data/logs/pyflow_tasks_stderr_log.txt'
p26
sS'outFile'
p27
S'/home/robin/Documents/Project/TFM_code/CNVbenchmarkeR-master/output/manta-datasetclinic/set8/workspace/pyflow.data/logs/pyflow_tasks_stdout_log.txt'
p28
sS'env'
p29
NsS'nCores'
p30
I1
sS'cwd'
p31
S''
p32
s.