(dp0
S'isShellCmd'
p1
I00
sS'cmd'
p2
(lp3
S'/home/robin/Documents/Project/manta/Install/libexec/EstimateSVLoci'
p4
aS'--output-file'
p5
aS'/home/robin/Documents/Project/TFM_code/CNVbenchmarkeR-master/output/manta-datasetall/workspace/svLocusGraph.bin.tmpdir/svLocusGraph.chromId_401_Un_KI270448v1_0000_to_chromId_415_Un_KI270518v1_0000.bin'
p6
aS'--align-stats'
p7
aS'/home/robin/Documents/Project/TFM_code/CNVbenchmarkeR-master/output/manta-datasetall/workspace/alignmentStats.xml'
p8
aS'--region'
p9
aS'Un_KI270448v1:1-7992'
p10
ag9
aS'Un_KI270465v1:1-1774'
p11
ag9
aS'Un_KI270466v1:1-1233'
p12
ag9
aS'Un_KI270467v1:1-3920'
p13
ag9
aS'Un_KI270468v1:1-4055'
p14
ag9
aS'Un_KI270507v1:1-5353'
p15
ag9
aS'Un_KI270508v1:1-1951'
p16
ag9
aS'Un_KI270509v1:1-2318'
p17
ag9
aS'Un_KI270510v1:1-2415'
p18
ag9
aS'Un_KI270511v1:1-8127'
p19
ag9
aS'Un_KI270512v1:1-22689'
p20
ag9
aS'Un_KI270515v1:1-6361'
p21
ag9
aS'Un_KI270516v1:1-1300'
p22
ag9
aS'Un_KI270517v1:1-3253'
p23
ag9
aS'Un_KI270518v1:1-2186'
p24
aS'--min-candidate-sv-size'
p25
aS'8'
p26
aS'--min-edge-observations'
p27
aS'2'
p28
aS'--ref'
p29
aS'/home/robin/Documents/Project/Samples/hg38/hg38.fa'
p30
aS'--align-file'
p31
aS'/home/robin/Documents/Project/Samples/bam/all/17296.bam'
p32
ag31
aS'/home/robin/Documents/Project/Samples/bam/all/17297.bam'
p33
ag31
aS'/home/robin/Documents/Project/Samples/bam/all/17298.bam'
p34
ag31
aS'/home/robin/Documents/Project/Samples/bam/all/17299.bam'
p35
ag31
aS'/home/robin/Documents/Project/Samples/bam/all/17300.bam'
p36
ag31
aS'/home/robin/Documents/Project/Samples/bam/all/17301.bam'
p37
ag31
aS'/home/robin/Documents/Project/Samples/bam/all/17302.bam'
p38
ag31
aS'/home/robin/Documents/Project/Samples/bam/all/17303.bam'
p39
ag31
aS'/home/robin/Documents/Project/Samples/bam/all/17304.bam'
p40
ag31
aS'/home/robin/Documents/Project/Samples/bam/all/17305.bam'
p41
ag31
aS'/home/robin/Documents/Project/Samples/bam/all/17306.bam'
p42
ag31
aS'/home/robin/Documents/Project/Samples/bam/all/17307.bam'
p43
ag31
aS'/home/robin/Documents/Project/Samples/bam/all/17308.bam'
p44
ag31
aS'/home/robin/Documents/Project/Samples/bam/all/17309.bam'
p45
ag31
aS'/home/robin/Documents/Project/Samples/bam/all/17310.bam'
p46
ag31
aS'/home/robin/Documents/Project/Samples/bam/all/17311.bam'
p47
ag31
aS'/home/robin/Documents/Project/Samples/bam/all/17312.bam'
p48
ag31
aS'/home/robin/Documents/Project/Samples/bam/all/17313.bam'
p49
ag31
aS'/home/robin/Documents/Project/Samples/bam/all/17314.bam'
p50
ag31
aS'/home/robin/Documents/Project/Samples/bam/all/17315.bam'
p51
ag31
aS'/home/robin/Documents/Project/Samples/bam/all/17316.bam'
p52
ag31
aS'/home/robin/Documents/Project/Samples/bam/all/17317.bam'
p53
ag31
aS'/home/robin/Documents/Project/Samples/bam/all/17318.bam'
p54
ag31
aS'/home/robin/Documents/Project/Samples/bam/all/17319.bam'
p55
ag31
aS'/home/robin/Documents/Project/Samples/bam/all/17320.bam'
p56
ag31
aS'/home/robin/Documents/Project/Samples/bam/all/17321.bam'
p57
ag31
aS'/home/robin/Documents/Project/Samples/bam/all/17322.bam'
p58
ag31
aS'/home/robin/Documents/Project/Samples/bam/all/17323.bam'
p59
ag31
aS'/home/robin/Documents/Project/Samples/bam/all/17324.bam'
p60
ag31
aS'/home/robin/Documents/Project/Samples/bam/all/17325.bam'
p61
ag31
aS'/home/robin/Documents/Project/Samples/bam/all/17326.bam'
p62
ag31
aS'/home/robin/Documents/Project/Samples/bam/all/17327.bam'
p63
ag31
aS'/home/robin/Documents/Project/Samples/bam/all/17328.bam'
p64
ag31
aS'/home/robin/Documents/Project/Samples/bam/all/17329.bam'
p65
ag31
aS'/home/robin/Documents/Project/Samples/bam/all/17330.bam'
p66
ag31
aS'/home/robin/Documents/Project/Samples/bam/all/17331.bam'
p67
ag31
aS'/home/robin/Documents/Project/Samples/bam/all/17332.bam'
p68
ag31
aS'/home/robin/Documents/Project/Samples/bam/all/17333.bam'
p69
ag31
aS'/home/robin/Documents/Project/Samples/bam/all/17334.bam'
p70
ag31
aS'/home/robin/Documents/Project/Samples/bam/all/17335.bam'
p71
ag31
aS'/home/robin/Documents/Project/Samples/bam/all/17336.bam'
p72
ag31
aS'/home/robin/Documents/Project/Samples/bam/all/17337.bam'
p73
ag31
aS'/home/robin/Documents/Project/Samples/bam/all/17338.bam'
p74
ag31
aS'/home/robin/Documents/Project/Samples/bam/all/17339.bam'
p75
ag31
aS'/home/robin/Documents/Project/Samples/bam/all/17340.bam'
p76
ag31
aS'/home/robin/Documents/Project/Samples/bam/all/17341.bam'
p77
ag31
aS'/home/robin/Documents/Project/Samples/bam/all/17342.bam'
p78
ag31
aS'/home/robin/Documents/Project/Samples/bam/all/17343.bam'
p79
ag31
aS'/home/robin/Documents/Project/Samples/bam/all/17356.bam'
p80
ag31
aS'/home/robin/Documents/Project/Samples/bam/all/17357.bam'
p81
ag31
aS'/home/robin/Documents/Project/Samples/bam/all/17358.bam'
p82
ag31
aS'/home/robin/Documents/Project/Samples/bam/all/17359.bam'
p83
ag31
aS'/home/robin/Documents/Project/Samples/bam/all/17360.bam'
p84
ag31
aS'/home/robin/Documents/Project/Samples/bam/all/17361.bam'
p85
ag31
aS'/home/robin/Documents/Project/Samples/bam/all/17362.bam'
p86
ag31
aS'/home/robin/Documents/Project/Samples/bam/all/17363.bam'
p87
ag31
aS'/home/robin/Documents/Project/Samples/bam/all/17364.bam'
p88
ag31
aS'/home/robin/Documents/Project/Samples/bam/all/17365.bam'
p89
ag31
aS'/home/robin/Documents/Project/Samples/bam/all/17366.bam'
p90
ag31
aS'/home/robin/Documents/Project/Samples/bam/all/17367.bam'
p91
ag31
aS'/home/robin/Documents/Project/Samples/bam/all/17368.bam'
p92
ag31
aS'/home/robin/Documents/Project/Samples/bam/all/17369.bam'
p93
ag31
aS'/home/robin/Documents/Project/Samples/bam/all/17370.bam'
p94
ag31
aS'/home/robin/Documents/Project/Samples/bam/all/17371.bam'
p95
ag31
aS'/home/robin/Documents/Project/Samples/bam/all/17372.bam'
p96
ag31
aS'/home/robin/Documents/Project/Samples/bam/all/17373.bam'
p97
ag31
aS'/home/robin/Documents/Project/Samples/bam/all/17374.bam'
p98
ag31
aS'/home/robin/Documents/Project/Samples/bam/all/17375.bam'
p99
ag31
aS'/home/robin/Documents/Project/Samples/bam/all/17376.bam'
p100
ag31
aS'/home/robin/Documents/Project/Samples/bam/all/17377.bam'
p101
ag31
aS'/home/robin/Documents/Project/Samples/bam/all/17378.bam'
p102
ag31
aS'/home/robin/Documents/Project/Samples/bam/all/17379.bam'
p103
ag31
aS'/home/robin/Documents/Project/Samples/bam/all/17380.bam'
p104
ag31
aS'/home/robin/Documents/Project/Samples/bam/all/17381.bam'
p105
ag31
aS'/home/robin/Documents/Project/Samples/bam/all/17382.bam'
p106
ag31
aS'/home/robin/Documents/Project/Samples/bam/all/17383.bam'
p107
ag31
aS'/home/robin/Documents/Project/Samples/bam/all/17384.bam'
p108
ag31
aS'/home/robin/Documents/Project/Samples/bam/all/17385.bam'
p109
ag31
aS'/home/robin/Documents/Project/Samples/bam/all/17386.bam'
p110
ag31
aS'/home/robin/Documents/Project/Samples/bam/all/17387.bam'
p111
ag31
aS'/home/robin/Documents/Project/Samples/bam/all/17388.bam'
p112
ag31
aS'/home/robin/Documents/Project/Samples/bam/all/17389.bam'
p113
ag31
aS'/home/robin/Documents/Project/Samples/bam/all/17390.bam'
p114
ag31
aS'/home/robin/Documents/Project/Samples/bam/all/17391.bam'
p115
ag31
aS'/home/robin/Documents/Project/Samples/bam/all/17392.bam'
p116
ag31
aS'/home/robin/Documents/Project/Samples/bam/all/17393.bam'
p117
ag31
aS'/home/robin/Documents/Project/Samples/bam/all/17394.bam'
p118
ag31
aS'/home/robin/Documents/Project/Samples/bam/all/17395.bam'
p119
ag31
aS'/home/robin/Documents/Project/Samples/bam/all/17396.bam'
p120
ag31
aS'/home/robin/Documents/Project/Samples/bam/all/17397.bam'
p121
ag31
aS'/home/robin/Documents/Project/Samples/bam/all/17398.bam'
p122
ag31
aS'/home/robin/Documents/Project/Samples/bam/all/17399.bam'
p123
ag31
aS'/home/robin/Documents/Project/Samples/bam/all/17400.bam'
p124
ag31
aS'/home/robin/Documents/Project/Samples/bam/all/17401.bam'
p125
ag31
aS'/home/robin/Documents/Project/Samples/bam/all/17402.bam'
p126
ag31
aS'/home/robin/Documents/Project/Samples/bam/all/17403.bam'
p127
asS'errFile'
p128
S'/home/robin/Documents/Project/TFM_code/CNVbenchmarkeR-master/output/manta-datasetall/workspace/pyflow.data/logs/pyflow_tasks_stderr_log.txt'
p129
sS'outFile'
p130
S'/home/robin/Documents/Project/TFM_code/CNVbenchmarkeR-master/output/manta-datasetall/workspace/pyflow.data/logs/pyflow_tasks_stdout_log.txt'
p131
sS'env'
p132
NsS'nCores'
p133
I1
sS'cwd'
p134
S''
p135
s.