(dp0
S'isShellCmd'
p1
I00
sS'cmd'
p2
(lp3
S'/home/robin/Documents/Project/manta/Install/libexec/EstimateSVLoci'
p4
aS'--output-file'
p5
aS'/home/robin/Documents/Project/TFM_code/CNVbenchmarkeR-master/output/manta-datasetsingle/set6/workspace/svLocusGraph.bin.tmpdir/svLocusGraph.chromId_136_9_GL383540v1_alt_0000.bin'
p6
aS'--align-stats'
p7
aS'/home/robin/Documents/Project/TFM_code/CNVbenchmarkeR-master/output/manta-datasetsingle/set6/workspace/alignmentStats.xml'
p8
aS'--region'
p9
aS'9_GL383540v1_alt:1-71551'
p10
aS'--min-candidate-sv-size'
p11
aS'8'
p12
aS'--min-edge-observations'
p13
aS'2'
p14
aS'--ref'
p15
aS'/home/robin/Documents/Project/Samples/hg38/hg38.fa'
p16
aS'--align-file'
p17
aS'/home/robin/Documents/Project/Samples/bam/single/17362.bam'
p18
ag17
aS'/home/robin/Documents/Project/Samples/bam/single/17364.bam'
p19
ag17
aS'/home/robin/Documents/Project/Samples/bam/single/17365.bam'
p20
ag17
aS'/home/robin/Documents/Project/Samples/bam/single/17367.bam'
p21
ag17
aS'/home/robin/Documents/Project/Samples/bam/single/17368.bam'
p22
ag17
aS'/home/robin/Documents/Project/Samples/bam/single/17369.bam'
p23
asS'errFile'
p24
S'/home/robin/Documents/Project/TFM_code/CNVbenchmarkeR-master/output/manta-datasetsingle/set6/workspace/pyflow.data/logs/pyflow_tasks_stderr_log.txt'
p25
sS'outFile'
p26
S'/home/robin/Documents/Project/TFM_code/CNVbenchmarkeR-master/output/manta-datasetsingle/set6/workspace/pyflow.data/logs/pyflow_tasks_stdout_log.txt'
p27
sS'env'
p28
NsS'nCores'
p29
I1
sS'cwd'
p30
S''
p31
s.