(dp0
S'isShellCmd'
p1
I00
sS'cmd'
p2
(lp3
S'/home/robin/Documents/Project/manta/Install/libexec/EstimateSVLoci'
p4
aS'--output-file'
p5
aS'/home/robin/Documents/Project/TFM_code/CNVbenchmarkeR/output/manta2-datasetall/results17360/workspace/svLocusGraph.bin.tmpdir/svLocusGraph.chromId_161_12_GL383550v2_alt_0000.bin'
p6
aS'--align-stats'
p7
aS'/home/robin/Documents/Project/TFM_code/CNVbenchmarkeR/output/manta2-datasetall/results17360/workspace/alignmentStats.xml'
p8
aS'--region'
p9
aS'12_GL383550v2_alt:1-169178'
p10
aS'--min-candidate-sv-size'
p11
aS'8'
p12
aS'--min-edge-observations'
p13
aS'2'
p14
aS'--ref'
p15
aS'/home/robin/Documents/Project/Samples/hg38/hg38.fa'
p16
aS'--align-file'
p17
aS'/home/robin/Documents/Project/Samples/bam/all/17360.bam'
p18
asS'errFile'
p19
S'/home/robin/Documents/Project/TFM_code/CNVbenchmarkeR/output/manta2-datasetall/results17360/workspace/pyflow.data/logs/pyflow_tasks_stderr_log.txt'
p20
sS'outFile'
p21
S'/home/robin/Documents/Project/TFM_code/CNVbenchmarkeR/output/manta2-datasetall/results17360/workspace/pyflow.data/logs/pyflow_tasks_stdout_log.txt'
p22
sS'env'
p23
NsS'nCores'
p24
I1
sS'cwd'
p25
S''
p26
s.