(dp0
S'isShellCmd'
p1
I00
sS'cmd'
p2
(lp3
S'/home/robin/Documents/Project/manta/Install/libexec/EstimateSVLoci'
p4
aS'--output-file'
p5
aS'/home/robin/Documents/Project/TFM_code/CNVbenchmarkeR-master/output/manta-datasetclinic/set10/workspace/svLocusGraph.bin.tmpdir/svLocusGraph.chromId_416_Un_KI270519v1_0000_to_chromId_421_Un_KI270530v1_0000.bin'
p6
aS'--align-stats'
p7
aS'/home/robin/Documents/Project/TFM_code/CNVbenchmarkeR-master/output/manta-datasetclinic/set10/workspace/alignmentStats.xml'
p8
aS'--region'
p9
aS'Un_KI270519v1:1-138126'
p10
ag9
aS'Un_KI270521v1:1-7642'
p11
ag9
aS'Un_KI270522v1:1-5674'
p12
ag9
aS'Un_KI270528v1:1-2983'
p13
ag9
aS'Un_KI270529v1:1-1899'
p14
ag9
aS'Un_KI270530v1:1-2168'
p15
aS'--min-candidate-sv-size'
p16
aS'8'
p17
aS'--min-edge-observations'
p18
aS'2'
p19
aS'--ref'
p20
aS'/home/robin/Documents/Project/Samples/hg38/hg38.fa'
p21
aS'--align-file'
p22
aS'/home/robin/Documents/Project/Samples/bam/all/17362.bam'
p23
ag22
aS'/home/robin/Documents/Project/Samples/bam/all/17363.bam'
p24
ag22
aS'/home/robin/Documents/Project/Samples/bam/all/17364.bam'
p25
ag22
aS'/home/robin/Documents/Project/Samples/bam/all/17365.bam'
p26
ag22
aS'/home/robin/Documents/Project/Samples/bam/all/17366.bam'
p27
ag22
aS'/home/robin/Documents/Project/Samples/bam/all/17367.bam'
p28
asS'errFile'
p29
S'/home/robin/Documents/Project/TFM_code/CNVbenchmarkeR-master/output/manta-datasetclinic/set10/workspace/pyflow.data/logs/pyflow_tasks_stderr_log.txt'
p30
sS'outFile'
p31
S'/home/robin/Documents/Project/TFM_code/CNVbenchmarkeR-master/output/manta-datasetclinic/set10/workspace/pyflow.data/logs/pyflow_tasks_stdout_log.txt'
p32
sS'env'
p33
NsS'nCores'
p34
I1
sS'cwd'
p35
S''
p36
s.