(dp0
S'isShellCmd'
p1
I01
sS'cmd'
p2
S'"/home/robin/anaconda3/envs/mantaenv/bin/python" "/home/robin/Documents/Project/manta/Install/libexec/vcfCmdlineSwapper.py" "/home/robin/Documents/Project/manta/Install/bin/configManta.py --bam=/home/robin/Documents/Project/Samples/bam/single/17296.bam --bam=/home/robin/Documents/Project/Samples/bam/single/17298.bam --bam=/home/robin/Documents/Project/Samples/bam/single/17299.bam --bam=/home/robin/Documents/Project/Samples/bam/single/17300.bam --bam=/home/robin/Documents/Project/Samples/bam/single/17301.bam --bam=/home/robin/Documents/Project/Samples/bam/single/17304.bam --bam=/home/robin/Documents/Project/Samples/bam/single/17305.bam --bam=/home/robin/Documents/Project/Samples/bam/single/17306.bam --bam=/home/robin/Documents/Project/Samples/bam/single/17308.bam --bam=/home/robin/Documents/Project/Samples/bam/single/17309.bam --bam=/home/robin/Documents/Project/Samples/bam/single/17310.bam --bam=/home/robin/Documents/Project/Samples/bam/single/17311.bam --bam=/home/robin/Documents/Project/Samples/bam/single/17312.bam --bam=/home/robin/Documents/Project/Samples/bam/single/17313.bam --bam=/home/robin/Documents/Project/Samples/bam/single/17314.bam --bam=/home/robin/Documents/Project/Samples/bam/single/17315.bam --bam=/home/robin/Documents/Project/Samples/bam/single/17316.bam --bam=/home/robin/Documents/Project/Samples/bam/single/17317.bam --bam=/home/robin/Documents/Project/Samples/bam/single/17319.bam --bam=/home/robin/Documents/Project/Samples/bam/single/17320.bam --bam=/home/robin/Documents/Project/Samples/bam/single/17326.bam --bam=/home/robin/Documents/Project/Samples/bam/single/17327.bam --bam=/home/robin/Documents/Project/Samples/bam/single/17328.bam --bam=/home/robin/Documents/Project/Samples/bam/single/17329.bam --bam=/home/robin/Documents/Project/Samples/bam/single/17330.bam --bam=/home/robin/Documents/Project/Samples/bam/single/17333.bam --bam=/home/robin/Documents/Project/Samples/bam/single/17339.bam --bam=/home/robin/Documents/Project/Samples/bam/single/17356.bam --bam=/home/robin/Documents/Project/Samples/bam/single/17360.bam --bam=/home/robin/Documents/Project/Samples/bam/single/17361.bam --bam=/home/robin/Documents/Project/Samples/bam/single/17362.bam --bam=/home/robin/Documents/Project/Samples/bam/single/17364.bam --bam=/home/robin/Documents/Project/Samples/bam/single/17365.bam --bam=/home/robin/Documents/Project/Samples/bam/single/17367.bam --bam=/home/robin/Documents/Project/Samples/bam/single/17368.bam --bam=/home/robin/Documents/Project/Samples/bam/single/17369.bam --bam=/home/robin/Documents/Project/Samples/bam/single/17370.bam --bam=/home/robin/Documents/Project/Samples/bam/single/17371.bam --bam=/home/robin/Documents/Project/Samples/bam/single/17373.bam --bam=/home/robin/Documents/Project/Samples/bam/single/17374.bam --bam=/home/robin/Documents/Project/Samples/bam/single/17376.bam --bam=/home/robin/Documents/Project/Samples/bam/single/17382.bam --bam=/home/robin/Documents/Project/Samples/bam/single/17384.bam --bam=/home/robin/Documents/Project/Samples/bam/single/17386.bam --bam=/home/robin/Documents/Project/Samples/bam/single/17387.bam --bam=/home/robin/Documents/Project/Samples/bam/single/17389.bam --bam=/home/robin/Documents/Project/Samples/bam/single/17391.bam --bam=/home/robin/Documents/Project/Samples/bam/single/17392.bam --bam=/home/robin/Documents/Project/Samples/bam/single/17397.bam --bam=/home/robin/Documents/Project/Samples/bam/single/17398.bam --bam=/home/robin/Documents/Project/Samples/bam/single/17399.bam --bam=/home/robin/Documents/Project/Samples/bam/single/17401.bam --bam=/home/robin/Documents/Project/Samples/bam/single/17402.bam --bam=/home/robin/Documents/Project/Samples/bam/single/17403.bam --referenceFasta=/home/robin/Documents/Project/Samples/hg38/hg38.fa --config=/home/robin/Documents/Project/TFM_code/CNVbenchmarkeR-master/output/manta-datasetsinglefilter/configManta.py.ini --exome --runDir=/home/robin/Documents/Project/TFM_code/CNVbenchmarkeR-master/output/manta-datasetsinglefilter" < "/home/robin/Documents/Project/TFM_code/CNVbenchmarkeR-master/output/manta-datasetsinglefilter/workspace/svHyGen/candidateSV.0000.vcf" > "/home/robin/Documents/Project/TFM_code/CNVbenchmarkeR-master/output/manta-datasetsinglefilter/workspace/svHyGen/candidateSV.0000.vcf.reheader.tmp" && mv "/home/robin/Documents/Project/TFM_code/CNVbenchmarkeR-master/output/manta-datasetsinglefilter/workspace/svHyGen/candidateSV.0000.vcf.reheader.tmp" "/home/robin/Documents/Project/TFM_code/CNVbenchmarkeR-master/output/manta-datasetsinglefilter/workspace/svHyGen/candidateSV.0000.vcf"'
p3
sS'errFile'
p4
S'/home/robin/Documents/Project/TFM_code/CNVbenchmarkeR-master/output/manta-datasetsinglefilter/workspace/pyflow.data/logs/pyflow_tasks_stderr_log.txt'
p5
sS'outFile'
p6
S'/home/robin/Documents/Project/TFM_code/CNVbenchmarkeR-master/output/manta-datasetsinglefilter/workspace/pyflow.data/logs/pyflow_tasks_stdout_log.txt'
p7
sS'env'
p8
NsS'nCores'
p9
I1
sS'cwd'
p10
S''
p11
s.