(dp0
S'isShellCmd'
p1
I00
sS'cmd'
p2
(lp3
S'/home/robin/Documents/Project/manta/Install/libexec/EstimateSVLoci'
p4
aS'--output-file'
p5
aS'/home/robin/Documents/Project/TFM_code/CNVbenchmarkeR/output/manta2-datasetall/results17380/workspace/svLocusGraph.bin.tmpdir/svLocusGraph.chromId_448_Un_KI270751v1_0000_to_chromId_449_Un_KI270752v1_0000.bin'
p6
aS'--align-stats'
p7
aS'/home/robin/Documents/Project/TFM_code/CNVbenchmarkeR/output/manta2-datasetall/results17380/workspace/alignmentStats.xml'
p8
aS'--region'
p9
aS'Un_KI270751v1:1-150742'
p10
ag9
aS'Un_KI270752v1:1-27745'
p11
aS'--min-candidate-sv-size'
p12
aS'8'
p13
aS'--min-edge-observations'
p14
aS'2'
p15
aS'--ref'
p16
aS'/home/robin/Documents/Project/Samples/hg38/hg38.fa'
p17
aS'--align-file'
p18
aS'/home/robin/Documents/Project/Samples/bam/all/17380.bam'
p19
asS'errFile'
p20
S'/home/robin/Documents/Project/TFM_code/CNVbenchmarkeR/output/manta2-datasetall/results17380/workspace/pyflow.data/logs/pyflow_tasks_stderr_log.txt'
p21
sS'outFile'
p22
S'/home/robin/Documents/Project/TFM_code/CNVbenchmarkeR/output/manta2-datasetall/results17380/workspace/pyflow.data/logs/pyflow_tasks_stdout_log.txt'
p23
sS'env'
p24
NsS'nCores'
p25
I1
sS'cwd'
p26
S''
p27
s.