(dp0
S'isShellCmd'
p1
I00
sS'cmd'
p2
(lp3
S'/home/robin/Documents/Project/manta/Install/libexec/GenerateSVCandidates'
p4
aS'--threads'
p5
aS'12'
p6
aS'--align-stats'
p7
aS'/home/robin/Documents/Project/TFM_code/CNVbenchmarkeR-master/output/manta-datasetall/workspace/alignmentStats.xml'
p8
aS'--graph-file'
p9
aS'/home/robin/Documents/Project/TFM_code/CNVbenchmarkeR-master/output/manta-datasetall/workspace/svLocusGraph.bin'
p10
aS'--bin-index'
p11
aS'0'
p12
aS'--bin-count'
p13
aS'1'
p14
aS'--max-edge-count'
p15
aS'10'
p16
aS'--min-candidate-sv-size'
p17
aS'8'
p18
aS'--min-candidate-spanning-count'
p19
aS'2'
p20
aS'--min-scored-sv-size'
p21
aS'50'
p22
aS'--ref'
p23
aS'/home/robin/Documents/Project/Samples/hg38/hg38.fa'
p24
aS'--candidate-output-file'
p25
aS'/home/robin/Documents/Project/TFM_code/CNVbenchmarkeR-master/output/manta-datasetall/workspace/svHyGen/candidateSV.0000.vcf'
p26
aS'--diploid-output-file'
p27
aS'/home/robin/Documents/Project/TFM_code/CNVbenchmarkeR-master/output/manta-datasetall/workspace/svHyGen/diploidSV.0000.vcf'
p28
aS'--min-qual-score'
p29
aS'10'
p30
aS'--min-pass-qual-score'
p31
aS'20'
p32
aS'--min-pass-gt-score'
p33
aS'15'
p34
aS'--enable-remote-read-retrieval'
p35
aS'--edge-runtime-log'
p36
aS'/home/robin/Documents/Project/TFM_code/CNVbenchmarkeR-master/output/manta-datasetall/workspace/svHyGen/edgeRuntimeLog.0000.txt'
p37
aS'--edge-stats-log'
p38
aS'/home/robin/Documents/Project/TFM_code/CNVbenchmarkeR-master/output/manta-datasetall/results/stats/svCandidateGenerationStats.xml'
p39
aS'--edge-stats-report'
p40
aS'/home/robin/Documents/Project/TFM_code/CNVbenchmarkeR-master/output/manta-datasetall/results/stats/svCandidateGenerationStats.tsv'
p41
aS'--align-file'
p42
aS'/home/robin/Documents/Project/Samples/bam/all/17296.bam'
p43
ag42
aS'/home/robin/Documents/Project/Samples/bam/all/17297.bam'
p44
ag42
aS'/home/robin/Documents/Project/Samples/bam/all/17298.bam'
p45
ag42
aS'/home/robin/Documents/Project/Samples/bam/all/17299.bam'
p46
ag42
aS'/home/robin/Documents/Project/Samples/bam/all/17300.bam'
p47
ag42
aS'/home/robin/Documents/Project/Samples/bam/all/17301.bam'
p48
ag42
aS'/home/robin/Documents/Project/Samples/bam/all/17302.bam'
p49
ag42
aS'/home/robin/Documents/Project/Samples/bam/all/17303.bam'
p50
ag42
aS'/home/robin/Documents/Project/Samples/bam/all/17304.bam'
p51
ag42
aS'/home/robin/Documents/Project/Samples/bam/all/17305.bam'
p52
ag42
aS'/home/robin/Documents/Project/Samples/bam/all/17306.bam'
p53
ag42
aS'/home/robin/Documents/Project/Samples/bam/all/17307.bam'
p54
ag42
aS'/home/robin/Documents/Project/Samples/bam/all/17308.bam'
p55
ag42
aS'/home/robin/Documents/Project/Samples/bam/all/17309.bam'
p56
ag42
aS'/home/robin/Documents/Project/Samples/bam/all/17310.bam'
p57
ag42
aS'/home/robin/Documents/Project/Samples/bam/all/17311.bam'
p58
ag42
aS'/home/robin/Documents/Project/Samples/bam/all/17312.bam'
p59
ag42
aS'/home/robin/Documents/Project/Samples/bam/all/17313.bam'
p60
ag42
aS'/home/robin/Documents/Project/Samples/bam/all/17314.bam'
p61
ag42
aS'/home/robin/Documents/Project/Samples/bam/all/17315.bam'
p62
ag42
aS'/home/robin/Documents/Project/Samples/bam/all/17316.bam'
p63
ag42
aS'/home/robin/Documents/Project/Samples/bam/all/17317.bam'
p64
ag42
aS'/home/robin/Documents/Project/Samples/bam/all/17318.bam'
p65
ag42
aS'/home/robin/Documents/Project/Samples/bam/all/17319.bam'
p66
ag42
aS'/home/robin/Documents/Project/Samples/bam/all/17320.bam'
p67
ag42
aS'/home/robin/Documents/Project/Samples/bam/all/17321.bam'
p68
ag42
aS'/home/robin/Documents/Project/Samples/bam/all/17322.bam'
p69
ag42
aS'/home/robin/Documents/Project/Samples/bam/all/17323.bam'
p70
ag42
aS'/home/robin/Documents/Project/Samples/bam/all/17324.bam'
p71
ag42
aS'/home/robin/Documents/Project/Samples/bam/all/17325.bam'
p72
ag42
aS'/home/robin/Documents/Project/Samples/bam/all/17326.bam'
p73
ag42
aS'/home/robin/Documents/Project/Samples/bam/all/17327.bam'
p74
ag42
aS'/home/robin/Documents/Project/Samples/bam/all/17328.bam'
p75
ag42
aS'/home/robin/Documents/Project/Samples/bam/all/17329.bam'
p76
ag42
aS'/home/robin/Documents/Project/Samples/bam/all/17330.bam'
p77
ag42
aS'/home/robin/Documents/Project/Samples/bam/all/17331.bam'
p78
ag42
aS'/home/robin/Documents/Project/Samples/bam/all/17332.bam'
p79
ag42
aS'/home/robin/Documents/Project/Samples/bam/all/17333.bam'
p80
ag42
aS'/home/robin/Documents/Project/Samples/bam/all/17334.bam'
p81
ag42
aS'/home/robin/Documents/Project/Samples/bam/all/17335.bam'
p82
ag42
aS'/home/robin/Documents/Project/Samples/bam/all/17336.bam'
p83
ag42
aS'/home/robin/Documents/Project/Samples/bam/all/17337.bam'
p84
ag42
aS'/home/robin/Documents/Project/Samples/bam/all/17338.bam'
p85
ag42
aS'/home/robin/Documents/Project/Samples/bam/all/17339.bam'
p86
ag42
aS'/home/robin/Documents/Project/Samples/bam/all/17340.bam'
p87
ag42
aS'/home/robin/Documents/Project/Samples/bam/all/17341.bam'
p88
ag42
aS'/home/robin/Documents/Project/Samples/bam/all/17342.bam'
p89
ag42
aS'/home/robin/Documents/Project/Samples/bam/all/17343.bam'
p90
ag42
aS'/home/robin/Documents/Project/Samples/bam/all/17356.bam'
p91
ag42
aS'/home/robin/Documents/Project/Samples/bam/all/17357.bam'
p92
ag42
aS'/home/robin/Documents/Project/Samples/bam/all/17358.bam'
p93
ag42
aS'/home/robin/Documents/Project/Samples/bam/all/17359.bam'
p94
ag42
aS'/home/robin/Documents/Project/Samples/bam/all/17360.bam'
p95
ag42
aS'/home/robin/Documents/Project/Samples/bam/all/17361.bam'
p96
ag42
aS'/home/robin/Documents/Project/Samples/bam/all/17362.bam'
p97
ag42
aS'/home/robin/Documents/Project/Samples/bam/all/17363.bam'
p98
ag42
aS'/home/robin/Documents/Project/Samples/bam/all/17364.bam'
p99
ag42
aS'/home/robin/Documents/Project/Samples/bam/all/17365.bam'
p100
ag42
aS'/home/robin/Documents/Project/Samples/bam/all/17366.bam'
p101
ag42
aS'/home/robin/Documents/Project/Samples/bam/all/17367.bam'
p102
ag42
aS'/home/robin/Documents/Project/Samples/bam/all/17368.bam'
p103
ag42
aS'/home/robin/Documents/Project/Samples/bam/all/17369.bam'
p104
ag42
aS'/home/robin/Documents/Project/Samples/bam/all/17370.bam'
p105
ag42
aS'/home/robin/Documents/Project/Samples/bam/all/17371.bam'
p106
ag42
aS'/home/robin/Documents/Project/Samples/bam/all/17372.bam'
p107
ag42
aS'/home/robin/Documents/Project/Samples/bam/all/17373.bam'
p108
ag42
aS'/home/robin/Documents/Project/Samples/bam/all/17374.bam'
p109
ag42
aS'/home/robin/Documents/Project/Samples/bam/all/17375.bam'
p110
ag42
aS'/home/robin/Documents/Project/Samples/bam/all/17376.bam'
p111
ag42
aS'/home/robin/Documents/Project/Samples/bam/all/17377.bam'
p112
ag42
aS'/home/robin/Documents/Project/Samples/bam/all/17378.bam'
p113
ag42
aS'/home/robin/Documents/Project/Samples/bam/all/17379.bam'
p114
ag42
aS'/home/robin/Documents/Project/Samples/bam/all/17380.bam'
p115
ag42
aS'/home/robin/Documents/Project/Samples/bam/all/17381.bam'
p116
ag42
aS'/home/robin/Documents/Project/Samples/bam/all/17382.bam'
p117
ag42
aS'/home/robin/Documents/Project/Samples/bam/all/17383.bam'
p118
ag42
aS'/home/robin/Documents/Project/Samples/bam/all/17384.bam'
p119
ag42
aS'/home/robin/Documents/Project/Samples/bam/all/17385.bam'
p120
ag42
aS'/home/robin/Documents/Project/Samples/bam/all/17386.bam'
p121
ag42
aS'/home/robin/Documents/Project/Samples/bam/all/17387.bam'
p122
ag42
aS'/home/robin/Documents/Project/Samples/bam/all/17388.bam'
p123
ag42
aS'/home/robin/Documents/Project/Samples/bam/all/17389.bam'
p124
ag42
aS'/home/robin/Documents/Project/Samples/bam/all/17390.bam'
p125
ag42
aS'/home/robin/Documents/Project/Samples/bam/all/17391.bam'
p126
ag42
aS'/home/robin/Documents/Project/Samples/bam/all/17392.bam'
p127
ag42
aS'/home/robin/Documents/Project/Samples/bam/all/17393.bam'
p128
ag42
aS'/home/robin/Documents/Project/Samples/bam/all/17394.bam'
p129
ag42
aS'/home/robin/Documents/Project/Samples/bam/all/17395.bam'
p130
ag42
aS'/home/robin/Documents/Project/Samples/bam/all/17396.bam'
p131
ag42
aS'/home/robin/Documents/Project/Samples/bam/all/17397.bam'
p132
ag42
aS'/home/robin/Documents/Project/Samples/bam/all/17398.bam'
p133
ag42
aS'/home/robin/Documents/Project/Samples/bam/all/17399.bam'
p134
ag42
aS'/home/robin/Documents/Project/Samples/bam/all/17400.bam'
p135
ag42
aS'/home/robin/Documents/Project/Samples/bam/all/17401.bam'
p136
ag42
aS'/home/robin/Documents/Project/Samples/bam/all/17402.bam'
p137
ag42
aS'/home/robin/Documents/Project/Samples/bam/all/17403.bam'
p138
asS'errFile'
p139
S'/home/robin/Documents/Project/TFM_code/CNVbenchmarkeR-master/output/manta-datasetall/workspace/pyflow.data/logs/pyflow_tasks_stderr_log.txt'
p140
sS'outFile'
p141
S'/home/robin/Documents/Project/TFM_code/CNVbenchmarkeR-master/output/manta-datasetall/workspace/pyflow.data/logs/pyflow_tasks_stdout_log.txt'
p142
sS'env'
p143
NsS'nCores'
p144
I12
sS'cwd'
p145
S''
p146
s.