(dp0
S'isShellCmd'
p1
I00
sS'cmd'
p2
(lp3
S'/home/robin/Documents/Project/manta/Install/libexec/EstimateSVLoci'
p4
aS'--output-file'
p5
aS'/home/robin/Documents/Project/TFM_code/CNVbenchmarkeR-master/output/manta-dataset1/workspace/svLocusGraph.bin.tmpdir/svLocusGraph.chromId_434_Un_KI270589v1_0000_to_chromId_437_Un_KI270593v1_0000.bin'
p6
aS'--align-stats'
p7
aS'/home/robin/Documents/Project/TFM_code/CNVbenchmarkeR-master/output/manta-dataset1/workspace/alignmentStats.xml'
p8
aS'--region'
p9
aS'Un_KI270589v1:1-44474'
p10
ag9
aS'Un_KI270590v1:1-4685'
p11
ag9
aS'Un_KI270591v1:1-5796'
p12
ag9
aS'Un_KI270593v1:1-3041'
p13
aS'--min-candidate-sv-size'
p14
aS'8'
p15
aS'--min-edge-observations'
p16
aS'1'
p17
aS'--ref'
p18
aS'/home/robin/Documents/Project/Samples/hg38/hg38.fa'
p19
aS'--align-file'
p20
aS'/home/robin/Documents/Project/Samples/example/bam_ex/17296.bam'
p21
ag20
aS'/home/robin/Documents/Project/Samples/example/bam_ex/17297.bam'
p22
ag20
aS'/home/robin/Documents/Project/Samples/example/bam_ex/17298.bam'
p23
ag20
aS'/home/robin/Documents/Project/Samples/example/bam_ex/17299.bam'
p24
ag20
aS'/home/robin/Documents/Project/Samples/example/bam_ex/17300.bam'
p25
ag20
aS'/home/robin/Documents/Project/Samples/example/bam_ex/17301.bam'
p26
ag20
aS'/home/robin/Documents/Project/Samples/example/bam_ex/17302.bam'
p27
ag20
aS'/home/robin/Documents/Project/Samples/example/bam_ex/17303.bam'
p28
ag20
aS'/home/robin/Documents/Project/Samples/example/bam_ex/17304.bam'
p29
ag20
aS'/home/robin/Documents/Project/Samples/example/bam_ex/17305.bam'
p30
asS'errFile'
p31
S'/home/robin/Documents/Project/TFM_code/CNVbenchmarkeR-master/output/manta-dataset1/workspace/pyflow.data/logs/pyflow_tasks_stderr_log.txt'
p32
sS'outFile'
p33
S'/home/robin/Documents/Project/TFM_code/CNVbenchmarkeR-master/output/manta-dataset1/workspace/pyflow.data/logs/pyflow_tasks_stdout_log.txt'
p34
sS'env'
p35
NsS'nCores'
p36
I1
sS'cwd'
p37
S''
p38
s.