(dp0
S'isShellCmd'
p1
I00
sS'cmd'
p2
(lp3
S'/home/robin/Documents/Project/manta/Install/libexec/SummarizeAlignmentStats'
p4
aS'--align-stats'
p5
aS'/home/robin/Documents/Project/TFM_code/CNVbenchmarkeR-master/output/manta-datasetclinic/set2/workspace/alignmentStats.xml'
p6
aS'--output-file'
p7
aS'/home/robin/Documents/Project/TFM_code/CNVbenchmarkeR-master/output/manta-datasetclinic/set2/results/stats/alignmentStatsSummary.txt'
p8
asS'errFile'
p9
S'/home/robin/Documents/Project/TFM_code/CNVbenchmarkeR-master/output/manta-datasetclinic/set2/workspace/pyflow.data/logs/pyflow_tasks_stderr_log.txt'
p10
sS'outFile'
p11
S'/home/robin/Documents/Project/TFM_code/CNVbenchmarkeR-master/output/manta-datasetclinic/set2/workspace/pyflow.data/logs/pyflow_tasks_stdout_log.txt'
p12
sS'env'
p13
NsS'nCores'
p14
I1
sS'cwd'
p15
S''
p16
s.