(dp0
S'isShellCmd'
p1
I00
sS'cmd'
p2
(lp3
S'/home/robin/Documents/Project/manta/Install/libexec/EstimateSVLoci'
p4
aS'--output-file'
p5
aS'/home/robin/Documents/Project/TFM_code/CNVbenchmarkeR-master/output/manta-datasetall/workspace/svLocusGraph.bin.tmpdir/svLocusGraph.chromId_178_13_KI270842v1_alt_0000_to_chromId_179_13_KI270843v1_alt_0000.bin'
p6
aS'--align-stats'
p7
aS'/home/robin/Documents/Project/TFM_code/CNVbenchmarkeR-master/output/manta-datasetall/workspace/alignmentStats.xml'
p8
aS'--region'
p9
aS'13_KI270842v1_alt:1-37287'
p10
ag9
aS'13_KI270843v1_alt:1-103832'
p11
aS'--min-candidate-sv-size'
p12
aS'8'
p13
aS'--min-edge-observations'
p14
aS'2'
p15
aS'--ref'
p16
aS'/home/robin/Documents/Project/Samples/hg38/hg38.fa'
p17
aS'--align-file'
p18
aS'/home/robin/Documents/Project/Samples/bam/all/17296.bam'
p19
ag18
aS'/home/robin/Documents/Project/Samples/bam/all/17297.bam'
p20
ag18
aS'/home/robin/Documents/Project/Samples/bam/all/17298.bam'
p21
ag18
aS'/home/robin/Documents/Project/Samples/bam/all/17299.bam'
p22
ag18
aS'/home/robin/Documents/Project/Samples/bam/all/17300.bam'
p23
ag18
aS'/home/robin/Documents/Project/Samples/bam/all/17301.bam'
p24
ag18
aS'/home/robin/Documents/Project/Samples/bam/all/17302.bam'
p25
ag18
aS'/home/robin/Documents/Project/Samples/bam/all/17303.bam'
p26
ag18
aS'/home/robin/Documents/Project/Samples/bam/all/17304.bam'
p27
ag18
aS'/home/robin/Documents/Project/Samples/bam/all/17305.bam'
p28
ag18
aS'/home/robin/Documents/Project/Samples/bam/all/17306.bam'
p29
ag18
aS'/home/robin/Documents/Project/Samples/bam/all/17307.bam'
p30
ag18
aS'/home/robin/Documents/Project/Samples/bam/all/17308.bam'
p31
ag18
aS'/home/robin/Documents/Project/Samples/bam/all/17309.bam'
p32
ag18
aS'/home/robin/Documents/Project/Samples/bam/all/17310.bam'
p33
ag18
aS'/home/robin/Documents/Project/Samples/bam/all/17311.bam'
p34
ag18
aS'/home/robin/Documents/Project/Samples/bam/all/17312.bam'
p35
ag18
aS'/home/robin/Documents/Project/Samples/bam/all/17313.bam'
p36
ag18
aS'/home/robin/Documents/Project/Samples/bam/all/17314.bam'
p37
ag18
aS'/home/robin/Documents/Project/Samples/bam/all/17315.bam'
p38
ag18
aS'/home/robin/Documents/Project/Samples/bam/all/17316.bam'
p39
ag18
aS'/home/robin/Documents/Project/Samples/bam/all/17317.bam'
p40
ag18
aS'/home/robin/Documents/Project/Samples/bam/all/17318.bam'
p41
ag18
aS'/home/robin/Documents/Project/Samples/bam/all/17319.bam'
p42
ag18
aS'/home/robin/Documents/Project/Samples/bam/all/17320.bam'
p43
ag18
aS'/home/robin/Documents/Project/Samples/bam/all/17321.bam'
p44
ag18
aS'/home/robin/Documents/Project/Samples/bam/all/17322.bam'
p45
ag18
aS'/home/robin/Documents/Project/Samples/bam/all/17323.bam'
p46
ag18
aS'/home/robin/Documents/Project/Samples/bam/all/17324.bam'
p47
ag18
aS'/home/robin/Documents/Project/Samples/bam/all/17325.bam'
p48
ag18
aS'/home/robin/Documents/Project/Samples/bam/all/17326.bam'
p49
ag18
aS'/home/robin/Documents/Project/Samples/bam/all/17327.bam'
p50
ag18
aS'/home/robin/Documents/Project/Samples/bam/all/17328.bam'
p51
ag18
aS'/home/robin/Documents/Project/Samples/bam/all/17329.bam'
p52
ag18
aS'/home/robin/Documents/Project/Samples/bam/all/17330.bam'
p53
ag18
aS'/home/robin/Documents/Project/Samples/bam/all/17331.bam'
p54
ag18
aS'/home/robin/Documents/Project/Samples/bam/all/17332.bam'
p55
ag18
aS'/home/robin/Documents/Project/Samples/bam/all/17333.bam'
p56
ag18
aS'/home/robin/Documents/Project/Samples/bam/all/17334.bam'
p57
ag18
aS'/home/robin/Documents/Project/Samples/bam/all/17335.bam'
p58
ag18
aS'/home/robin/Documents/Project/Samples/bam/all/17336.bam'
p59
ag18
aS'/home/robin/Documents/Project/Samples/bam/all/17337.bam'
p60
ag18
aS'/home/robin/Documents/Project/Samples/bam/all/17338.bam'
p61
ag18
aS'/home/robin/Documents/Project/Samples/bam/all/17339.bam'
p62
ag18
aS'/home/robin/Documents/Project/Samples/bam/all/17340.bam'
p63
ag18
aS'/home/robin/Documents/Project/Samples/bam/all/17341.bam'
p64
ag18
aS'/home/robin/Documents/Project/Samples/bam/all/17342.bam'
p65
ag18
aS'/home/robin/Documents/Project/Samples/bam/all/17343.bam'
p66
ag18
aS'/home/robin/Documents/Project/Samples/bam/all/17356.bam'
p67
ag18
aS'/home/robin/Documents/Project/Samples/bam/all/17357.bam'
p68
ag18
aS'/home/robin/Documents/Project/Samples/bam/all/17358.bam'
p69
ag18
aS'/home/robin/Documents/Project/Samples/bam/all/17359.bam'
p70
ag18
aS'/home/robin/Documents/Project/Samples/bam/all/17360.bam'
p71
ag18
aS'/home/robin/Documents/Project/Samples/bam/all/17361.bam'
p72
ag18
aS'/home/robin/Documents/Project/Samples/bam/all/17362.bam'
p73
ag18
aS'/home/robin/Documents/Project/Samples/bam/all/17363.bam'
p74
ag18
aS'/home/robin/Documents/Project/Samples/bam/all/17364.bam'
p75
ag18
aS'/home/robin/Documents/Project/Samples/bam/all/17365.bam'
p76
ag18
aS'/home/robin/Documents/Project/Samples/bam/all/17366.bam'
p77
ag18
aS'/home/robin/Documents/Project/Samples/bam/all/17367.bam'
p78
ag18
aS'/home/robin/Documents/Project/Samples/bam/all/17368.bam'
p79
ag18
aS'/home/robin/Documents/Project/Samples/bam/all/17369.bam'
p80
ag18
aS'/home/robin/Documents/Project/Samples/bam/all/17370.bam'
p81
ag18
aS'/home/robin/Documents/Project/Samples/bam/all/17371.bam'
p82
ag18
aS'/home/robin/Documents/Project/Samples/bam/all/17372.bam'
p83
ag18
aS'/home/robin/Documents/Project/Samples/bam/all/17373.bam'
p84
ag18
aS'/home/robin/Documents/Project/Samples/bam/all/17374.bam'
p85
ag18
aS'/home/robin/Documents/Project/Samples/bam/all/17375.bam'
p86
ag18
aS'/home/robin/Documents/Project/Samples/bam/all/17376.bam'
p87
ag18
aS'/home/robin/Documents/Project/Samples/bam/all/17377.bam'
p88
ag18
aS'/home/robin/Documents/Project/Samples/bam/all/17378.bam'
p89
ag18
aS'/home/robin/Documents/Project/Samples/bam/all/17379.bam'
p90
ag18
aS'/home/robin/Documents/Project/Samples/bam/all/17380.bam'
p91
ag18
aS'/home/robin/Documents/Project/Samples/bam/all/17381.bam'
p92
ag18
aS'/home/robin/Documents/Project/Samples/bam/all/17382.bam'
p93
ag18
aS'/home/robin/Documents/Project/Samples/bam/all/17383.bam'
p94
ag18
aS'/home/robin/Documents/Project/Samples/bam/all/17384.bam'
p95
ag18
aS'/home/robin/Documents/Project/Samples/bam/all/17385.bam'
p96
ag18
aS'/home/robin/Documents/Project/Samples/bam/all/17386.bam'
p97
ag18
aS'/home/robin/Documents/Project/Samples/bam/all/17387.bam'
p98
ag18
aS'/home/robin/Documents/Project/Samples/bam/all/17388.bam'
p99
ag18
aS'/home/robin/Documents/Project/Samples/bam/all/17389.bam'
p100
ag18
aS'/home/robin/Documents/Project/Samples/bam/all/17390.bam'
p101
ag18
aS'/home/robin/Documents/Project/Samples/bam/all/17391.bam'
p102
ag18
aS'/home/robin/Documents/Project/Samples/bam/all/17392.bam'
p103
ag18
aS'/home/robin/Documents/Project/Samples/bam/all/17393.bam'
p104
ag18
aS'/home/robin/Documents/Project/Samples/bam/all/17394.bam'
p105
ag18
aS'/home/robin/Documents/Project/Samples/bam/all/17395.bam'
p106
ag18
aS'/home/robin/Documents/Project/Samples/bam/all/17396.bam'
p107
ag18
aS'/home/robin/Documents/Project/Samples/bam/all/17397.bam'
p108
ag18
aS'/home/robin/Documents/Project/Samples/bam/all/17398.bam'
p109
ag18
aS'/home/robin/Documents/Project/Samples/bam/all/17399.bam'
p110
ag18
aS'/home/robin/Documents/Project/Samples/bam/all/17400.bam'
p111
ag18
aS'/home/robin/Documents/Project/Samples/bam/all/17401.bam'
p112
ag18
aS'/home/robin/Documents/Project/Samples/bam/all/17402.bam'
p113
ag18
aS'/home/robin/Documents/Project/Samples/bam/all/17403.bam'
p114
asS'errFile'
p115
S'/home/robin/Documents/Project/TFM_code/CNVbenchmarkeR-master/output/manta-datasetall/workspace/pyflow.data/logs/pyflow_tasks_stderr_log.txt'
p116
sS'outFile'
p117
S'/home/robin/Documents/Project/TFM_code/CNVbenchmarkeR-master/output/manta-datasetall/workspace/pyflow.data/logs/pyflow_tasks_stdout_log.txt'
p118
sS'env'
p119
NsS'nCores'
p120
I1
sS'cwd'
p121
S''
p122
s.