(dp0
S'isShellCmd'
p1
I00
sS'cmd'
p2
(lp3
S'/home/robin/Documents/Project/manta/Install/libexec/EstimateSVLoci'
p4
aS'--output-file'
p5
aS'/home/robin/Documents/Project/TFM_code/CNVbenchmarkeR-master/output/manta-datasetsingle/set7/workspace/svLocusGraph.bin.tmpdir/svLocusGraph.chromId_259_19_KI270865v1_alt_0000_to_chromId_260_19_KI270866v1_alt_0000.bin'
p6
aS'--align-stats'
p7
aS'/home/robin/Documents/Project/TFM_code/CNVbenchmarkeR-master/output/manta-datasetsingle/set7/workspace/alignmentStats.xml'
p8
aS'--region'
p9
aS'19_KI270865v1_alt:1-52969'
p10
ag9
aS'19_KI270866v1_alt:1-43156'
p11
aS'--min-candidate-sv-size'
p12
aS'8'
p13
aS'--min-edge-observations'
p14
aS'2'
p15
aS'--ref'
p16
aS'/home/robin/Documents/Project/Samples/hg38/hg38.fa'
p17
aS'--align-file'
p18
aS'/home/robin/Documents/Project/Samples/bam/single/17370.bam'
p19
ag18
aS'/home/robin/Documents/Project/Samples/bam/single/17371.bam'
p20
ag18
aS'/home/robin/Documents/Project/Samples/bam/single/17373.bam'
p21
ag18
aS'/home/robin/Documents/Project/Samples/bam/single/17374.bam'
p22
ag18
aS'/home/robin/Documents/Project/Samples/bam/single/17376.bam'
p23
ag18
aS'/home/robin/Documents/Project/Samples/bam/single/17382.bam'
p24
asS'errFile'
p25
S'/home/robin/Documents/Project/TFM_code/CNVbenchmarkeR-master/output/manta-datasetsingle/set7/workspace/pyflow.data/logs/pyflow_tasks_stderr_log.txt'
p26
sS'outFile'
p27
S'/home/robin/Documents/Project/TFM_code/CNVbenchmarkeR-master/output/manta-datasetsingle/set7/workspace/pyflow.data/logs/pyflow_tasks_stdout_log.txt'
p28
sS'env'
p29
NsS'nCores'
p30
I1
sS'cwd'
p31
S''
p32
s.