(dp0
S'manta'
p1
(dp2
S'mantaMergeStatsBin'
p3
S'/home/robin/Documents/Project/manta/Install/libexec/MergeAlignmentStats'
p4
sS'isExome'
p5
I01
sS'enableEvidenceSignalFilter'
p6
S'1'
p7
sS'existingAlignStatsFile'
p8
NsS'referenceFasta'
p9
S'/home/robin/Documents/Project/Samples/hg38/hg38.fa'
p10
sS'hyGenSGEMemMb'
p11
I4096
sS'minPassSomaticScore'
p12
S'30'
p13
sS'tumorBamList'
p14
NsS'workflowScriptName'
p15
S'runWorkflow.py'
p16
sS'normalBamList'
p17
(lp18
S'/home/robin/Documents/Project/Samples/bam/all/17303.bam'
p19
asS'estimateMemMb'
p20
F1536.0
sS'mantaSortVcf'
p21
S'/home/robin/Documents/Project/manta/Install/libexec/sortVcf.py'
p22
sS'scanSizeMb'
p23
I12
sS'libexecDir'
p24
S'/home/robin/Documents/Project/manta/Install/libexec'
p25
sS'isRetainTempFiles'
p26
I00
sS'isRNA'
p27
I00
sS'mantaSortEdgeLogs'
p28
S'/home/robin/Documents/Project/manta/Install/libexec/sortEdgeLogs.py'
p29
sS'tabixBin'
p30
S'/home/robin/Documents/Project/manta/Install/libexec/tabix'
p31
sS'rnaMinCandidateVariantSize'
p32
S'1000'
p33
sS'callRegionsBed'
p34
NsS'mantaPloidyFilter'
p35
S'/home/robin/Documents/Project/manta/Install/libexec/ploidyFilter.py'
p36
sS'mantaSortBam'
p37
S'/home/robin/Documents/Project/manta/Install/libexec/sortBam.py'
p38
sS'samtoolsBin'
p39
S'/home/robin/Documents/Project/manta/Install/libexec/samtools'
p40
sS'useExistingChromDepths'
p41
I00
sS'vcfCmdlineSwapper'
p42
S'/home/robin/Documents/Project/manta/Install/libexec/vcfCmdlineSwapper.py'
p43
sS'mantaExtraSmallVcf'
p44
S'/home/robin/Documents/Project/manta/Install/libexec/extractSmallIndelCandidates.py'
p45
sS'mantaMergeBam'
p46
S'/home/robin/Documents/Project/manta/Install/libexec/mergeBam.py'
p47
sS'mantaStatsSummaryBin'
p48
S'/home/robin/Documents/Project/manta/Install/libexec/SummarizeAlignmentStats'
p49
sS'minScoredVariantSize'
p50
S'30'
p51
sS'mantaGraphStatsBin'
p52
S'/home/robin/Documents/Project/manta/Install/libexec/SummarizeSVLoci'
p53
sS'mantaGraphCheckBin'
p54
S'/home/robin/Documents/Project/manta/Install/libexec/CheckSVLoci'
p55
sS'minSomaticScore'
p56
S'10'
p57
sS'minCandidateVariantSize'
p58
S'8'
p59
sS'mantaGraphMergeBin'
p60
S'/home/robin/Documents/Project/manta/Install/libexec/MergeSVLoci'
p61
sS'genomeRegionList'
p62
NsS'getChromDepthBin'
p63
S'/home/robin/Documents/Project/manta/Install/libexec/GetChromDepth'
p64
sS'minPassDiploidGTScore'
p65
S'15'
p66
sS'graphNodeMaxEdgeCount'
p67
S'10'
p68
sS'enableRemoteReadRetrievalForInsertionsInCancerCallingModes'
p69
S'0'
p70
sS'mergeChromDepth'
p71
S'/home/robin/Documents/Project/manta/Install/libexec/mergeChromDepth.py'
p72
sS'isUnstrandedRNA'
p73
I00
sS'catScript'
p74
S'/home/robin/Documents/Project/manta/Install/libexec/cat.py'
p75
sS'runDir'
p76
S'/home/robin/Documents/Project/TFM_code/CNVbenchmarkeR/output/manta2-datasetall/results17303'
p77
sS'hyGenLocalMemMb'
p78
F1536.0
sS'enableRemoteReadRetrievalForInsertionsInGermlineCallingModes'
p79
g7
sS'mantaGraphBin'
p80
S'/home/robin/Documents/Project/manta/Install/libexec/EstimateSVLoci'
p81
sS'regionStrList'
p82
NsS'mergeMemMb'
p83
I4096
sS'isGenerateSupportBam'
p84
I00
sS'minPassDiploidVariantScore'
p85
S'20'
p86
sS'callMemMbOverride'
p87
NsS'userConfigPath'
p88
S'/home/robin/Documents/Project/TFM_code/CNVbenchmarkeR/output/manta2-datasetall/configManta.py.ini'
p89
sS'minEdgeObservations'
p90
S'2'
p91
sS'minDiploidVariantScore'
p92
S'10'
p93
sS'minCandidateSpanningCount'
p94
g91
sS'mantaStatsBin'
p95
S'/home/robin/Documents/Project/manta/Install/libexec/GetAlignmentStats'
p96
sS'mantaHyGenBin'
p97
S'/home/robin/Documents/Project/manta/Install/libexec/GenerateSVCandidates'
p98
sS'htsfileBin'
p99
S'/home/robin/Documents/Project/manta/Install/libexec/htsfile'
p100
sS'useOverlapPairEvidence'
p101
g70
sS'bgzipBin'
p102
S'/home/robin/Documents/Project/manta/Install/libexec/bgzip'
p103
sS'configCommandLine'
p104
(lp105
S'/home/robin/Documents/Project/manta/Install/bin/configManta.py'
p106
aS'--bam=/home/robin/Documents/Project/Samples/bam/all/17303.bam'
p107
aS'--referenceFasta=/home/robin/Documents/Project/Samples/hg38/hg38.fa'
p108
aS'--config=/home/robin/Documents/Project/TFM_code/CNVbenchmarkeR/output/manta2-datasetall/configManta.py.ini'
p109
aS'--exome'
p110
aS'--runDir=/home/robin/Documents/Project/TFM_code/CNVbenchmarkeR/output/manta2-datasetall/results17303'
p111
asS'isOutputContig'
p112
I00
ss.