(dp0
S'isShellCmd'
p1
I00
sS'cmd'
p2
(lp3
S'/home/robin/Documents/Project/manta/Install/libexec/EstimateSVLoci'
p4
aS'--output-file'
p5
aS'/home/robin/Documents/Project/TFM_code/CNVbenchmarkeR/output/manta2-datasetall/results17319/workspace/svLocusGraph.bin.tmpdir/svLocusGraph.chromId_004_1_KI270709v1_random_0000_to_chromId_006_1_KI270711v1_random_0000.bin'
p6
aS'--align-stats'
p7
aS'/home/robin/Documents/Project/TFM_code/CNVbenchmarkeR/output/manta2-datasetall/results17319/workspace/alignmentStats.xml'
p8
aS'--region'
p9
aS'1_KI270709v1_random:1-66860'
p10
ag9
aS'1_KI270710v1_random:1-40176'
p11
ag9
aS'1_KI270711v1_random:1-42210'
p12
aS'--min-candidate-sv-size'
p13
aS'8'
p14
aS'--min-edge-observations'
p15
aS'2'
p16
aS'--ref'
p17
aS'/home/robin/Documents/Project/Samples/hg38/hg38.fa'
p18
aS'--align-file'
p19
aS'/home/robin/Documents/Project/Samples/bam/all/17319.bam'
p20
asS'errFile'
p21
S'/home/robin/Documents/Project/TFM_code/CNVbenchmarkeR/output/manta2-datasetall/results17319/workspace/pyflow.data/logs/pyflow_tasks_stderr_log.txt'
p22
sS'outFile'
p23
S'/home/robin/Documents/Project/TFM_code/CNVbenchmarkeR/output/manta2-datasetall/results17319/workspace/pyflow.data/logs/pyflow_tasks_stdout_log.txt'
p24
sS'env'
p25
NsS'nCores'
p26
I1
sS'cwd'
p27
S''
p28
s.