(dp0
S'isShellCmd'
p1
I01
sS'cmd'
p2
S'"/home/robin/anaconda3/envs/mantaenv/bin/python" "/home/robin/Documents/Project/manta/Install/libexec/vcfCmdlineSwapper.py" "/home/robin/Documents/Project/manta/Install/bin/configManta.py --bam=/home/robin/Documents/Project/Samples/bam/all/17296.bam --bam=/home/robin/Documents/Project/Samples/bam/all/17297.bam --bam=/home/robin/Documents/Project/Samples/bam/all/17298.bam --bam=/home/robin/Documents/Project/Samples/bam/all/17299.bam --bam=/home/robin/Documents/Project/Samples/bam/all/17300.bam --bam=/home/robin/Documents/Project/Samples/bam/all/17301.bam --bam=/home/robin/Documents/Project/Samples/bam/all/17302.bam --bam=/home/robin/Documents/Project/Samples/bam/all/17303.bam --bam=/home/robin/Documents/Project/Samples/bam/all/17304.bam --bam=/home/robin/Documents/Project/Samples/bam/all/17305.bam --bam=/home/robin/Documents/Project/Samples/bam/all/17306.bam --bam=/home/robin/Documents/Project/Samples/bam/all/17307.bam --bam=/home/robin/Documents/Project/Samples/bam/all/17308.bam --bam=/home/robin/Documents/Project/Samples/bam/all/17309.bam --bam=/home/robin/Documents/Project/Samples/bam/all/17310.bam --bam=/home/robin/Documents/Project/Samples/bam/all/17311.bam --bam=/home/robin/Documents/Project/Samples/bam/all/17312.bam --bam=/home/robin/Documents/Project/Samples/bam/all/17313.bam --bam=/home/robin/Documents/Project/Samples/bam/all/17314.bam --bam=/home/robin/Documents/Project/Samples/bam/all/17315.bam --bam=/home/robin/Documents/Project/Samples/bam/all/17316.bam --bam=/home/robin/Documents/Project/Samples/bam/all/17317.bam --bam=/home/robin/Documents/Project/Samples/bam/all/17318.bam --bam=/home/robin/Documents/Project/Samples/bam/all/17319.bam --bam=/home/robin/Documents/Project/Samples/bam/all/17320.bam --bam=/home/robin/Documents/Project/Samples/bam/all/17321.bam --bam=/home/robin/Documents/Project/Samples/bam/all/17322.bam --bam=/home/robin/Documents/Project/Samples/bam/all/17323.bam --bam=/home/robin/Documents/Project/Samples/bam/all/17324.bam --bam=/home/robin/Documents/Project/Samples/bam/all/17325.bam --bam=/home/robin/Documents/Project/Samples/bam/all/17326.bam --bam=/home/robin/Documents/Project/Samples/bam/all/17327.bam --bam=/home/robin/Documents/Project/Samples/bam/all/17328.bam --bam=/home/robin/Documents/Project/Samples/bam/all/17329.bam --bam=/home/robin/Documents/Project/Samples/bam/all/17330.bam --bam=/home/robin/Documents/Project/Samples/bam/all/17331.bam --bam=/home/robin/Documents/Project/Samples/bam/all/17332.bam --bam=/home/robin/Documents/Project/Samples/bam/all/17333.bam --bam=/home/robin/Documents/Project/Samples/bam/all/17334.bam --bam=/home/robin/Documents/Project/Samples/bam/all/17335.bam --bam=/home/robin/Documents/Project/Samples/bam/all/17336.bam --bam=/home/robin/Documents/Project/Samples/bam/all/17337.bam --bam=/home/robin/Documents/Project/Samples/bam/all/17338.bam --bam=/home/robin/Documents/Project/Samples/bam/all/17339.bam --bam=/home/robin/Documents/Project/Samples/bam/all/17340.bam --bam=/home/robin/Documents/Project/Samples/bam/all/17341.bam --bam=/home/robin/Documents/Project/Samples/bam/all/17342.bam --bam=/home/robin/Documents/Project/Samples/bam/all/17343.bam --bam=/home/robin/Documents/Project/Samples/bam/all/17356.bam --bam=/home/robin/Documents/Project/Samples/bam/all/17357.bam --bam=/home/robin/Documents/Project/Samples/bam/all/17358.bam --bam=/home/robin/Documents/Project/Samples/bam/all/17359.bam --bam=/home/robin/Documents/Project/Samples/bam/all/17360.bam --bam=/home/robin/Documents/Project/Samples/bam/all/17361.bam --bam=/home/robin/Documents/Project/Samples/bam/all/17362.bam --bam=/home/robin/Documents/Project/Samples/bam/all/17363.bam --bam=/home/robin/Documents/Project/Samples/bam/all/17364.bam --bam=/home/robin/Documents/Project/Samples/bam/all/17365.bam --bam=/home/robin/Documents/Project/Samples/bam/all/17366.bam --bam=/home/robin/Documents/Project/Samples/bam/all/17367.bam --bam=/home/robin/Documents/Project/Samples/bam/all/17368.bam --bam=/home/robin/Documents/Project/Samples/bam/all/17369.bam --bam=/home/robin/Documents/Project/Samples/bam/all/17370.bam --bam=/home/robin/Documents/Project/Samples/bam/all/17371.bam --bam=/home/robin/Documents/Project/Samples/bam/all/17372.bam --bam=/home/robin/Documents/Project/Samples/bam/all/17373.bam --bam=/home/robin/Documents/Project/Samples/bam/all/17374.bam --bam=/home/robin/Documents/Project/Samples/bam/all/17375.bam --bam=/home/robin/Documents/Project/Samples/bam/all/17376.bam --bam=/home/robin/Documents/Project/Samples/bam/all/17377.bam --bam=/home/robin/Documents/Project/Samples/bam/all/17378.bam --bam=/home/robin/Documents/Project/Samples/bam/all/17379.bam --bam=/home/robin/Documents/Project/Samples/bam/all/17380.bam --bam=/home/robin/Documents/Project/Samples/bam/all/17381.bam --bam=/home/robin/Documents/Project/Samples/bam/all/17382.bam --bam=/home/robin/Documents/Project/Samples/bam/all/17383.bam --bam=/home/robin/Documents/Project/Samples/bam/all/17384.bam --bam=/home/robin/Documents/Project/Samples/bam/all/17385.bam --bam=/home/robin/Documents/Project/Samples/bam/all/17386.bam --bam=/home/robin/Documents/Project/Samples/bam/all/17387.bam --bam=/home/robin/Documents/Project/Samples/bam/all/17388.bam --bam=/home/robin/Documents/Project/Samples/bam/all/17389.bam --bam=/home/robin/Documents/Project/Samples/bam/all/17390.bam --bam=/home/robin/Documents/Project/Samples/bam/all/17391.bam --bam=/home/robin/Documents/Project/Samples/bam/all/17392.bam --bam=/home/robin/Documents/Project/Samples/bam/all/17393.bam --bam=/home/robin/Documents/Project/Samples/bam/all/17394.bam --bam=/home/robin/Documents/Project/Samples/bam/all/17395.bam --bam=/home/robin/Documents/Project/Samples/bam/all/17396.bam --bam=/home/robin/Documents/Project/Samples/bam/all/17397.bam --bam=/home/robin/Documents/Project/Samples/bam/all/17398.bam --bam=/home/robin/Documents/Project/Samples/bam/all/17399.bam --bam=/home/robin/Documents/Project/Samples/bam/all/17400.bam --bam=/home/robin/Documents/Project/Samples/bam/all/17401.bam --bam=/home/robin/Documents/Project/Samples/bam/all/17402.bam --bam=/home/robin/Documents/Project/Samples/bam/all/17403.bam --referenceFasta=/home/robin/Documents/Project/Samples/hg38/hg38.fa --config=/home/robin/Documents/Project/TFM_code/CNVbenchmarkeR-master/output/manta-datasetall/configManta.py.ini --exome --runDir=/home/robin/Documents/Project/TFM_code/CNVbenchmarkeR-master/output/manta-datasetall" < "/home/robin/Documents/Project/TFM_code/CNVbenchmarkeR-master/output/manta-datasetall/workspace/svHyGen/diploidSV.0000.vcf" > "/home/robin/Documents/Project/TFM_code/CNVbenchmarkeR-master/output/manta-datasetall/workspace/svHyGen/diploidSV.0000.vcf.reheader.tmp" && mv "/home/robin/Documents/Project/TFM_code/CNVbenchmarkeR-master/output/manta-datasetall/workspace/svHyGen/diploidSV.0000.vcf.reheader.tmp" "/home/robin/Documents/Project/TFM_code/CNVbenchmarkeR-master/output/manta-datasetall/workspace/svHyGen/diploidSV.0000.vcf"'
p3
sS'errFile'
p4
S'/home/robin/Documents/Project/TFM_code/CNVbenchmarkeR-master/output/manta-datasetall/workspace/pyflow.data/logs/pyflow_tasks_stderr_log.txt'
p5
sS'outFile'
p6
S'/home/robin/Documents/Project/TFM_code/CNVbenchmarkeR-master/output/manta-datasetall/workspace/pyflow.data/logs/pyflow_tasks_stdout_log.txt'
p7
sS'env'
p8
NsS'nCores'
p9
I1
sS'cwd'
p10
S''
p11
s.