(dp0
S'isShellCmd'
p1
I00
sS'cmd'
p2
(lp3
S'/home/robin/Documents/Project/manta/Install/libexec/EstimateSVLoci'
p4
aS'--output-file'
p5
aS'/home/robin/Documents/Project/TFM_code/CNVbenchmarkeR-master/output/manta-dataset1/workspace/svLocusGraph.bin.tmpdir/svLocusGraph.chromId_303_22_KI270731v1_random_0000_to_chromId_304_22_KI270732v1_random_0000.bin'
p6
aS'--align-stats'
p7
aS'/home/robin/Documents/Project/TFM_code/CNVbenchmarkeR-master/output/manta-dataset1/workspace/alignmentStats.xml'
p8
aS'--region'
p9
aS'22_KI270731v1_random:1-150754'
p10
ag9
aS'22_KI270732v1_random:1-41543'
p11
aS'--min-candidate-sv-size'
p12
aS'8'
p13
aS'--min-edge-observations'
p14
aS'1'
p15
aS'--ref'
p16
aS'/home/robin/Documents/Project/Samples/hg38/hg38.fa'
p17
aS'--align-file'
p18
aS'/home/robin/Documents/Project/Samples/example/bam_ex/17296.bam'
p19
ag18
aS'/home/robin/Documents/Project/Samples/example/bam_ex/17297.bam'
p20
ag18
aS'/home/robin/Documents/Project/Samples/example/bam_ex/17298.bam'
p21
ag18
aS'/home/robin/Documents/Project/Samples/example/bam_ex/17299.bam'
p22
ag18
aS'/home/robin/Documents/Project/Samples/example/bam_ex/17300.bam'
p23
ag18
aS'/home/robin/Documents/Project/Samples/example/bam_ex/17301.bam'
p24
ag18
aS'/home/robin/Documents/Project/Samples/example/bam_ex/17302.bam'
p25
ag18
aS'/home/robin/Documents/Project/Samples/example/bam_ex/17303.bam'
p26
ag18
aS'/home/robin/Documents/Project/Samples/example/bam_ex/17304.bam'
p27
ag18
aS'/home/robin/Documents/Project/Samples/example/bam_ex/17305.bam'
p28
asS'errFile'
p29
S'/home/robin/Documents/Project/TFM_code/CNVbenchmarkeR-master/output/manta-dataset1/workspace/pyflow.data/logs/pyflow_tasks_stderr_log.txt'
p30
sS'outFile'
p31
S'/home/robin/Documents/Project/TFM_code/CNVbenchmarkeR-master/output/manta-dataset1/workspace/pyflow.data/logs/pyflow_tasks_stdout_log.txt'
p32
sS'env'
p33
NsS'nCores'
p34
I1
sS'cwd'
p35
S''
p36
s.