(dp0
S'isShellCmd'
p1
I00
sS'cmd'
p2
(lp3
S'/home/robin/Documents/Project/manta/Install/libexec/EstimateSVLoci'
p4
aS'--output-file'
p5
aS'/home/robin/Documents/Project/TFM_code/CNVbenchmarkeR-master/output/manta-datasetsinglefilter/workspace/svLocusGraph.bin.tmpdir/svLocusGraph.chromId_310_22_KI270738v1_random_0000_to_chromId_311_22_KI270739v1_random_0000.bin'
p6
aS'--align-stats'
p7
aS'/home/robin/Documents/Project/TFM_code/CNVbenchmarkeR-master/output/manta-datasetsinglefilter/workspace/alignmentStats.xml'
p8
aS'--region'
p9
aS'22_KI270738v1_random:1-99375'
p10
ag9
aS'22_KI270739v1_random:1-73985'
p11
aS'--min-candidate-sv-size'
p12
aS'8'
p13
aS'--min-edge-observations'
p14
aS'1'
p15
aS'--ref'
p16
aS'/home/robin/Documents/Project/Samples/hg38/hg38.fa'
p17
aS'--align-file'
p18
aS'/home/robin/Documents/Project/Samples/bam/single/17296.bam'
p19
ag18
aS'/home/robin/Documents/Project/Samples/bam/single/17298.bam'
p20
ag18
aS'/home/robin/Documents/Project/Samples/bam/single/17299.bam'
p21
ag18
aS'/home/robin/Documents/Project/Samples/bam/single/17300.bam'
p22
ag18
aS'/home/robin/Documents/Project/Samples/bam/single/17301.bam'
p23
ag18
aS'/home/robin/Documents/Project/Samples/bam/single/17304.bam'
p24
ag18
aS'/home/robin/Documents/Project/Samples/bam/single/17305.bam'
p25
ag18
aS'/home/robin/Documents/Project/Samples/bam/single/17306.bam'
p26
ag18
aS'/home/robin/Documents/Project/Samples/bam/single/17308.bam'
p27
ag18
aS'/home/robin/Documents/Project/Samples/bam/single/17309.bam'
p28
ag18
aS'/home/robin/Documents/Project/Samples/bam/single/17310.bam'
p29
ag18
aS'/home/robin/Documents/Project/Samples/bam/single/17311.bam'
p30
ag18
aS'/home/robin/Documents/Project/Samples/bam/single/17312.bam'
p31
ag18
aS'/home/robin/Documents/Project/Samples/bam/single/17313.bam'
p32
ag18
aS'/home/robin/Documents/Project/Samples/bam/single/17314.bam'
p33
ag18
aS'/home/robin/Documents/Project/Samples/bam/single/17315.bam'
p34
ag18
aS'/home/robin/Documents/Project/Samples/bam/single/17316.bam'
p35
ag18
aS'/home/robin/Documents/Project/Samples/bam/single/17317.bam'
p36
ag18
aS'/home/robin/Documents/Project/Samples/bam/single/17319.bam'
p37
ag18
aS'/home/robin/Documents/Project/Samples/bam/single/17320.bam'
p38
ag18
aS'/home/robin/Documents/Project/Samples/bam/single/17326.bam'
p39
ag18
aS'/home/robin/Documents/Project/Samples/bam/single/17327.bam'
p40
ag18
aS'/home/robin/Documents/Project/Samples/bam/single/17328.bam'
p41
ag18
aS'/home/robin/Documents/Project/Samples/bam/single/17329.bam'
p42
ag18
aS'/home/robin/Documents/Project/Samples/bam/single/17330.bam'
p43
ag18
aS'/home/robin/Documents/Project/Samples/bam/single/17333.bam'
p44
ag18
aS'/home/robin/Documents/Project/Samples/bam/single/17339.bam'
p45
ag18
aS'/home/robin/Documents/Project/Samples/bam/single/17356.bam'
p46
ag18
aS'/home/robin/Documents/Project/Samples/bam/single/17360.bam'
p47
ag18
aS'/home/robin/Documents/Project/Samples/bam/single/17361.bam'
p48
ag18
aS'/home/robin/Documents/Project/Samples/bam/single/17362.bam'
p49
ag18
aS'/home/robin/Documents/Project/Samples/bam/single/17364.bam'
p50
ag18
aS'/home/robin/Documents/Project/Samples/bam/single/17365.bam'
p51
ag18
aS'/home/robin/Documents/Project/Samples/bam/single/17367.bam'
p52
ag18
aS'/home/robin/Documents/Project/Samples/bam/single/17368.bam'
p53
ag18
aS'/home/robin/Documents/Project/Samples/bam/single/17369.bam'
p54
ag18
aS'/home/robin/Documents/Project/Samples/bam/single/17370.bam'
p55
ag18
aS'/home/robin/Documents/Project/Samples/bam/single/17371.bam'
p56
ag18
aS'/home/robin/Documents/Project/Samples/bam/single/17373.bam'
p57
ag18
aS'/home/robin/Documents/Project/Samples/bam/single/17374.bam'
p58
ag18
aS'/home/robin/Documents/Project/Samples/bam/single/17376.bam'
p59
ag18
aS'/home/robin/Documents/Project/Samples/bam/single/17382.bam'
p60
ag18
aS'/home/robin/Documents/Project/Samples/bam/single/17384.bam'
p61
ag18
aS'/home/robin/Documents/Project/Samples/bam/single/17386.bam'
p62
ag18
aS'/home/robin/Documents/Project/Samples/bam/single/17387.bam'
p63
ag18
aS'/home/robin/Documents/Project/Samples/bam/single/17389.bam'
p64
ag18
aS'/home/robin/Documents/Project/Samples/bam/single/17391.bam'
p65
ag18
aS'/home/robin/Documents/Project/Samples/bam/single/17392.bam'
p66
ag18
aS'/home/robin/Documents/Project/Samples/bam/single/17397.bam'
p67
ag18
aS'/home/robin/Documents/Project/Samples/bam/single/17398.bam'
p68
ag18
aS'/home/robin/Documents/Project/Samples/bam/single/17399.bam'
p69
ag18
aS'/home/robin/Documents/Project/Samples/bam/single/17401.bam'
p70
ag18
aS'/home/robin/Documents/Project/Samples/bam/single/17402.bam'
p71
ag18
aS'/home/robin/Documents/Project/Samples/bam/single/17403.bam'
p72
asS'errFile'
p73
S'/home/robin/Documents/Project/TFM_code/CNVbenchmarkeR-master/output/manta-datasetsinglefilter/workspace/pyflow.data/logs/pyflow_tasks_stderr_log.txt'
p74
sS'outFile'
p75
S'/home/robin/Documents/Project/TFM_code/CNVbenchmarkeR-master/output/manta-datasetsinglefilter/workspace/pyflow.data/logs/pyflow_tasks_stdout_log.txt'
p76
sS'env'
p77
NsS'nCores'
p78
I1
sS'cwd'
p79
S''
p80
s.