(dp0
S'isShellCmd'
p1
I00
sS'cmd'
p2
(lp3
S'/home/robin/Documents/Project/manta/Install/libexec/EstimateSVLoci'
p4
aS'--output-file'
p5
aS'/home/robin/Documents/Project/TFM_code/CNVbenchmarkeR/output/manta2-datasetall/results17322/workspace/svLocusGraph.bin.tmpdir/svLocusGraph.chromId_434_Un_KI270589v1_0000_to_chromId_437_Un_KI270593v1_0000.bin'
p6
aS'--align-stats'
p7
aS'/home/robin/Documents/Project/TFM_code/CNVbenchmarkeR/output/manta2-datasetall/results17322/workspace/alignmentStats.xml'
p8
aS'--region'
p9
aS'Un_KI270589v1:1-44474'
p10
ag9
aS'Un_KI270590v1:1-4685'
p11
ag9
aS'Un_KI270591v1:1-5796'
p12
ag9
aS'Un_KI270593v1:1-3041'
p13
aS'--min-candidate-sv-size'
p14
aS'8'
p15
aS'--min-edge-observations'
p16
aS'2'
p17
aS'--ref'
p18
aS'/home/robin/Documents/Project/Samples/hg38/hg38.fa'
p19
aS'--align-file'
p20
aS'/home/robin/Documents/Project/Samples/bam/all/17322.bam'
p21
asS'errFile'
p22
S'/home/robin/Documents/Project/TFM_code/CNVbenchmarkeR/output/manta2-datasetall/results17322/workspace/pyflow.data/logs/pyflow_tasks_stderr_log.txt'
p23
sS'outFile'
p24
S'/home/robin/Documents/Project/TFM_code/CNVbenchmarkeR/output/manta2-datasetall/results17322/workspace/pyflow.data/logs/pyflow_tasks_stdout_log.txt'
p25
sS'env'
p26
NsS'nCores'
p27
I1
sS'cwd'
p28
S''
p29
s.