(dp0
S'isShellCmd'
p1
I00
sS'cmd'
p2
(lp3
S'/home/robin/Documents/Project/manta/Install/libexec/GenerateSVCandidates'
p4
aS'--threads'
p5
aS'12'
p6
aS'--align-stats'
p7
aS'/home/robin/Documents/Project/TFM_code/CNVbenchmarkeR/output/manta2-datasetall/results17386/workspace/alignmentStats.xml'
p8
aS'--graph-file'
p9
aS'/home/robin/Documents/Project/TFM_code/CNVbenchmarkeR/output/manta2-datasetall/results17386/workspace/svLocusGraph.bin'
p10
aS'--bin-index'
p11
aS'0'
p12
aS'--bin-count'
p13
aS'1'
p14
aS'--max-edge-count'
p15
aS'10'
p16
aS'--min-candidate-sv-size'
p17
aS'8'
p18
aS'--min-candidate-spanning-count'
p19
aS'2'
p20
aS'--min-scored-sv-size'
p21
aS'30'
p22
aS'--ref'
p23
aS'/home/robin/Documents/Project/Samples/hg38/hg38.fa'
p24
aS'--candidate-output-file'
p25
aS'/home/robin/Documents/Project/TFM_code/CNVbenchmarkeR/output/manta2-datasetall/results17386/workspace/svHyGen/candidateSV.0000.vcf'
p26
aS'--diploid-output-file'
p27
aS'/home/robin/Documents/Project/TFM_code/CNVbenchmarkeR/output/manta2-datasetall/results17386/workspace/svHyGen/diploidSV.0000.vcf'
p28
aS'--min-qual-score'
p29
aS'10'
p30
aS'--min-pass-qual-score'
p31
aS'20'
p32
aS'--min-pass-gt-score'
p33
aS'15'
p34
aS'--enable-remote-read-retrieval'
p35
aS'--edge-runtime-log'
p36
aS'/home/robin/Documents/Project/TFM_code/CNVbenchmarkeR/output/manta2-datasetall/results17386/workspace/svHyGen/edgeRuntimeLog.0000.txt'
p37
aS'--edge-stats-log'
p38
aS'/home/robin/Documents/Project/TFM_code/CNVbenchmarkeR/output/manta2-datasetall/results17386/results/stats/svCandidateGenerationStats.xml'
p39
aS'--edge-stats-report'
p40
aS'/home/robin/Documents/Project/TFM_code/CNVbenchmarkeR/output/manta2-datasetall/results17386/results/stats/svCandidateGenerationStats.tsv'
p41
aS'--align-file'
p42
aS'/home/robin/Documents/Project/Samples/bam/all/17386.bam'
p43
asS'errFile'
p44
S'/home/robin/Documents/Project/TFM_code/CNVbenchmarkeR/output/manta2-datasetall/results17386/workspace/pyflow.data/logs/pyflow_tasks_stderr_log.txt'
p45
sS'outFile'
p46
S'/home/robin/Documents/Project/TFM_code/CNVbenchmarkeR/output/manta2-datasetall/results17386/workspace/pyflow.data/logs/pyflow_tasks_stdout_log.txt'
p47
sS'env'
p48
NsS'nCores'
p49
I12
sS'cwd'
p50
S''
p51
s.