(dp0
S'isShellCmd'
p1
I00
sS'cmd'
p2
(lp3
S'/home/robin/Documents/Project/manta/Install/libexec/GenerateSVCandidates'
p4
aS'--threads'
p5
aS'12'
p6
aS'--align-stats'
p7
aS'/home/robin/Documents/Project/TFM_code/CNVbenchmarkeR-master/output/manta-datasetsingle/workspace/alignmentStats.xml'
p8
aS'--graph-file'
p9
aS'/home/robin/Documents/Project/TFM_code/CNVbenchmarkeR-master/output/manta-datasetsingle/workspace/svLocusGraph.bin'
p10
aS'--bin-index'
p11
aS'0'
p12
aS'--bin-count'
p13
aS'1'
p14
aS'--max-edge-count'
p15
aS'10'
p16
aS'--min-candidate-sv-size'
p17
aS'8'
p18
aS'--min-candidate-spanning-count'
p19
aS'2'
p20
aS'--min-scored-sv-size'
p21
aS'50'
p22
aS'--ref'
p23
aS'/home/robin/Documents/Project/Samples/hg38/hg38.fa'
p24
aS'--candidate-output-file'
p25
aS'/home/robin/Documents/Project/TFM_code/CNVbenchmarkeR-master/output/manta-datasetsingle/workspace/svHyGen/candidateSV.0000.vcf'
p26
aS'--diploid-output-file'
p27
aS'/home/robin/Documents/Project/TFM_code/CNVbenchmarkeR-master/output/manta-datasetsingle/workspace/svHyGen/diploidSV.0000.vcf'
p28
aS'--min-qual-score'
p29
aS'10'
p30
aS'--min-pass-qual-score'
p31
aS'20'
p32
aS'--min-pass-gt-score'
p33
aS'15'
p34
aS'--enable-remote-read-retrieval'
p35
aS'--edge-runtime-log'
p36
aS'/home/robin/Documents/Project/TFM_code/CNVbenchmarkeR-master/output/manta-datasetsingle/workspace/svHyGen/edgeRuntimeLog.0000.txt'
p37
aS'--edge-stats-log'
p38
aS'/home/robin/Documents/Project/TFM_code/CNVbenchmarkeR-master/output/manta-datasetsingle/results/stats/svCandidateGenerationStats.xml'
p39
aS'--edge-stats-report'
p40
aS'/home/robin/Documents/Project/TFM_code/CNVbenchmarkeR-master/output/manta-datasetsingle/results/stats/svCandidateGenerationStats.tsv'
p41
aS'--align-file'
p42
aS'/home/robin/Documents/Project/Samples/bam/single/17296.bam'
p43
ag42
aS'/home/robin/Documents/Project/Samples/bam/single/17298.bam'
p44
ag42
aS'/home/robin/Documents/Project/Samples/bam/single/17299.bam'
p45
ag42
aS'/home/robin/Documents/Project/Samples/bam/single/17300.bam'
p46
ag42
aS'/home/robin/Documents/Project/Samples/bam/single/17301.bam'
p47
ag42
aS'/home/robin/Documents/Project/Samples/bam/single/17304.bam'
p48
ag42
aS'/home/robin/Documents/Project/Samples/bam/single/17305.bam'
p49
ag42
aS'/home/robin/Documents/Project/Samples/bam/single/17306.bam'
p50
ag42
aS'/home/robin/Documents/Project/Samples/bam/single/17308.bam'
p51
ag42
aS'/home/robin/Documents/Project/Samples/bam/single/17309.bam'
p52
ag42
aS'/home/robin/Documents/Project/Samples/bam/single/17310.bam'
p53
ag42
aS'/home/robin/Documents/Project/Samples/bam/single/17311.bam'
p54
ag42
aS'/home/robin/Documents/Project/Samples/bam/single/17312.bam'
p55
ag42
aS'/home/robin/Documents/Project/Samples/bam/single/17313.bam'
p56
ag42
aS'/home/robin/Documents/Project/Samples/bam/single/17314.bam'
p57
ag42
aS'/home/robin/Documents/Project/Samples/bam/single/17315.bam'
p58
ag42
aS'/home/robin/Documents/Project/Samples/bam/single/17316.bam'
p59
ag42
aS'/home/robin/Documents/Project/Samples/bam/single/17317.bam'
p60
ag42
aS'/home/robin/Documents/Project/Samples/bam/single/17319.bam'
p61
ag42
aS'/home/robin/Documents/Project/Samples/bam/single/17320.bam'
p62
ag42
aS'/home/robin/Documents/Project/Samples/bam/single/17326.bam'
p63
ag42
aS'/home/robin/Documents/Project/Samples/bam/single/17327.bam'
p64
ag42
aS'/home/robin/Documents/Project/Samples/bam/single/17328.bam'
p65
ag42
aS'/home/robin/Documents/Project/Samples/bam/single/17329.bam'
p66
ag42
aS'/home/robin/Documents/Project/Samples/bam/single/17330.bam'
p67
ag42
aS'/home/robin/Documents/Project/Samples/bam/single/17333.bam'
p68
ag42
aS'/home/robin/Documents/Project/Samples/bam/single/17339.bam'
p69
ag42
aS'/home/robin/Documents/Project/Samples/bam/single/17356.bam'
p70
ag42
aS'/home/robin/Documents/Project/Samples/bam/single/17360.bam'
p71
ag42
aS'/home/robin/Documents/Project/Samples/bam/single/17361.bam'
p72
ag42
aS'/home/robin/Documents/Project/Samples/bam/single/17362.bam'
p73
ag42
aS'/home/robin/Documents/Project/Samples/bam/single/17364.bam'
p74
ag42
aS'/home/robin/Documents/Project/Samples/bam/single/17365.bam'
p75
ag42
aS'/home/robin/Documents/Project/Samples/bam/single/17367.bam'
p76
ag42
aS'/home/robin/Documents/Project/Samples/bam/single/17368.bam'
p77
ag42
aS'/home/robin/Documents/Project/Samples/bam/single/17369.bam'
p78
ag42
aS'/home/robin/Documents/Project/Samples/bam/single/17370.bam'
p79
ag42
aS'/home/robin/Documents/Project/Samples/bam/single/17371.bam'
p80
ag42
aS'/home/robin/Documents/Project/Samples/bam/single/17373.bam'
p81
ag42
aS'/home/robin/Documents/Project/Samples/bam/single/17374.bam'
p82
ag42
aS'/home/robin/Documents/Project/Samples/bam/single/17376.bam'
p83
ag42
aS'/home/robin/Documents/Project/Samples/bam/single/17382.bam'
p84
ag42
aS'/home/robin/Documents/Project/Samples/bam/single/17384.bam'
p85
ag42
aS'/home/robin/Documents/Project/Samples/bam/single/17386.bam'
p86
ag42
aS'/home/robin/Documents/Project/Samples/bam/single/17387.bam'
p87
ag42
aS'/home/robin/Documents/Project/Samples/bam/single/17389.bam'
p88
ag42
aS'/home/robin/Documents/Project/Samples/bam/single/17391.bam'
p89
ag42
aS'/home/robin/Documents/Project/Samples/bam/single/17392.bam'
p90
ag42
aS'/home/robin/Documents/Project/Samples/bam/single/17397.bam'
p91
ag42
aS'/home/robin/Documents/Project/Samples/bam/single/17398.bam'
p92
ag42
aS'/home/robin/Documents/Project/Samples/bam/single/17399.bam'
p93
ag42
aS'/home/robin/Documents/Project/Samples/bam/single/17401.bam'
p94
ag42
aS'/home/robin/Documents/Project/Samples/bam/single/17402.bam'
p95
ag42
aS'/home/robin/Documents/Project/Samples/bam/single/17403.bam'
p96
asS'errFile'
p97
S'/home/robin/Documents/Project/TFM_code/CNVbenchmarkeR-master/output/manta-datasetsingle/workspace/pyflow.data/logs/pyflow_tasks_stderr_log.txt'
p98
sS'outFile'
p99
S'/home/robin/Documents/Project/TFM_code/CNVbenchmarkeR-master/output/manta-datasetsingle/workspace/pyflow.data/logs/pyflow_tasks_stdout_log.txt'
p100
sS'env'
p101
NsS'nCores'
p102
I12
sS'cwd'
p103
S''
p104
s.