(dp0
S'isShellCmd'
p1
I00
sS'cmd'
p2
(lp3
S'/home/robin/Documents/Project/manta/Install/libexec/EstimateSVLoci'
p4
aS'--output-file'
p5
aS'/home/robin/Documents/Project/TFM_code/CNVbenchmarkeR-master/output/manta-dataset1/workspace/svLocusGraph.bin.tmpdir/svLocusGraph.chromId_422_Un_KI270538v1_0000_to_chromId_433_Un_KI270588v1_0000.bin'
p6
aS'--align-stats'
p7
aS'/home/robin/Documents/Project/TFM_code/CNVbenchmarkeR-master/output/manta-dataset1/workspace/alignmentStats.xml'
p8
aS'--region'
p9
aS'Un_KI270538v1:1-91309'
p10
ag9
aS'Un_KI270539v1:1-993'
p11
ag9
aS'Un_KI270544v1:1-1202'
p12
ag9
aS'Un_KI270548v1:1-1599'
p13
ag9
aS'Un_KI270579v1:1-31033'
p14
ag9
aS'Un_KI270580v1:1-1553'
p15
ag9
aS'Un_KI270581v1:1-7046'
p16
ag9
aS'Un_KI270582v1:1-6504'
p17
ag9
aS'Un_KI270583v1:1-1400'
p18
ag9
aS'Un_KI270584v1:1-4513'
p19
ag9
aS'Un_KI270587v1:1-2969'
p20
ag9
aS'Un_KI270588v1:1-6158'
p21
aS'--min-candidate-sv-size'
p22
aS'8'
p23
aS'--min-edge-observations'
p24
aS'1'
p25
aS'--ref'
p26
aS'/home/robin/Documents/Project/Samples/hg38/hg38.fa'
p27
aS'--align-file'
p28
aS'/home/robin/Documents/Project/Samples/example/bam_ex/17296.bam'
p29
ag28
aS'/home/robin/Documents/Project/Samples/example/bam_ex/17297.bam'
p30
ag28
aS'/home/robin/Documents/Project/Samples/example/bam_ex/17298.bam'
p31
ag28
aS'/home/robin/Documents/Project/Samples/example/bam_ex/17299.bam'
p32
ag28
aS'/home/robin/Documents/Project/Samples/example/bam_ex/17300.bam'
p33
ag28
aS'/home/robin/Documents/Project/Samples/example/bam_ex/17301.bam'
p34
ag28
aS'/home/robin/Documents/Project/Samples/example/bam_ex/17302.bam'
p35
ag28
aS'/home/robin/Documents/Project/Samples/example/bam_ex/17303.bam'
p36
ag28
aS'/home/robin/Documents/Project/Samples/example/bam_ex/17304.bam'
p37
ag28
aS'/home/robin/Documents/Project/Samples/example/bam_ex/17305.bam'
p38
asS'errFile'
p39
S'/home/robin/Documents/Project/TFM_code/CNVbenchmarkeR-master/output/manta-dataset1/workspace/pyflow.data/logs/pyflow_tasks_stderr_log.txt'
p40
sS'outFile'
p41
S'/home/robin/Documents/Project/TFM_code/CNVbenchmarkeR-master/output/manta-dataset1/workspace/pyflow.data/logs/pyflow_tasks_stdout_log.txt'
p42
sS'env'
p43
NsS'nCores'
p44
I1
sS'cwd'
p45
S''
p46
s.